	.text
	.syntax unified
	.eabi_attribute	67, "2.09"	@ Tag_conformance
	.cpu	cortex-a8
	.eabi_attribute	6, 10	@ Tag_CPU_arch
	.eabi_attribute	7, 65	@ Tag_CPU_arch_profile
	.eabi_attribute	8, 1	@ Tag_ARM_ISA_use
	.eabi_attribute	9, 2	@ Tag_THUMB_ISA_use
	.fpu	neon
	.eabi_attribute	17, 1	@ Tag_ABI_PCS_GOT_use
	.eabi_attribute	20, 2	@ Tag_ABI_FP_denormal
	.eabi_attribute	23, 1	@ Tag_ABI_FP_number_model
	.eabi_attribute	34, 1	@ Tag_CPU_unaligned_access
	.eabi_attribute	24, 1	@ Tag_ABI_align_needed
	.eabi_attribute	25, 1	@ Tag_ABI_align_preserved
	.eabi_attribute	28, 1	@ Tag_ABI_VFP_args
	.eabi_attribute	38, 1	@ Tag_ABI_FP_16bit_format
	.eabi_attribute	18, 4	@ Tag_ABI_PCS_wchar_t
	.eabi_attribute	26, 2	@ Tag_ABI_enum_size
	.eabi_attribute	14, 0	@ Tag_ABI_PCS_R9_use
	.eabi_attribute	68, 1	@ Tag_Virtualization_use
	.file	"/root/Bela/projects/fft-circular-buffer-peaks/build/render.bc"
	.file	1 "/usr/include/ne10" "NE10_types.h"
	.file	2 "./libraries/Fft" "Fft.h"
	.file	3 "/usr/bin/../lib/gcc/arm-linux-gnueabihf/6.3.0/../../../../include/arm-linux-gnueabihf/c++/6.3.0/bits" "c++config.h"
	.file	4 "/usr/bin/../lib/gcc/arm-linux-gnueabihf/6.3.0/../../../../include/c++/6.3.0/bits" "alloc_traits.h"
	.file	5 "/usr/bin/../lib/gcc/arm-linux-gnueabihf/6.3.0/../../../../include/c++/6.3.0/ext" "new_allocator.h"
	.file	6 "/usr/bin/../lib/gcc/arm-linux-gnueabihf/6.3.0/../../../../include/arm-linux-gnueabihf/c++/6.3.0/bits" "c++allocator.h"
	.file	7 "/usr/bin/../lib/gcc/arm-linux-gnueabihf/6.3.0/../../../../include/c++/6.3.0/bits" "allocator.h"
	.file	8 "/usr/bin/../lib/gcc/arm-linux-gnueabihf/6.3.0/../../../../include/c++/6.3.0/ext" "alloc_traits.h"
	.file	9 "/usr/bin/../lib/gcc/arm-linux-gnueabihf/6.3.0/../../../../include/c++/6.3.0/bits" "stl_vector.h"
	.file	10 "/usr/bin/../lib/gcc/arm-linux-gnueabihf/6.3.0/../../../../include/c++/6.3.0" "type_traits"
	.file	11 "/root/Bela/projects/fft-circular-buffer-peaks" "render.cpp"
	.file	12 "/usr/bin/../lib/gcc/arm-linux-gnueabihf/6.3.0/../../../../include/c++/6.3.0/bits" "stringfwd.h"
	.file	13 "/root/Bela/projects/fft-circular-buffer-peaks" "MonoFilePlayer.h"
	.file	14 "./libraries/Gui" "Gui.h"
	.file	15 "/usr/bin/../lib/gcc/arm-linux-gnueabihf/6.3.0/../../../../include/c++/6.3.0/bits" "unique_ptr.h"
	.file	16 "/usr/bin/../lib/gcc/arm-linux-gnueabihf/6.3.0/../../../../include/c++/6.3.0" "tuple"
	.file	17 "/usr/bin/../lib/gcc/arm-linux-gnueabihf/6.3.0/../../../../include/c++/6.3.0/bits" "uses_allocator.h"
	.file	18 "/usr/bin/../lib/gcc/arm-linux-gnueabihf/6.3.0/../../../../include/c++/6.3.0/bits" "stl_function.h"
	.file	19 "/usr/bin/../lib/gcc/arm-linux-gnueabihf/6.3.0/../../../../include/c++/6.3.0" "functional"
	.file	20 "/usr/lib/llvm-3.9/bin/../lib/clang/3.9.1/include" "stddef.h"
	.file	21 "/usr/bin/../lib/gcc/arm-linux-gnueabihf/6.3.0/../../../../include/c++/6.3.0/ext" "concurrence.h"
	.file	22 "/usr/bin/../lib/gcc/arm-linux-gnueabihf/6.3.0/../../../../include/c++/6.3.0/bits" "basic_string.h"
	.file	23 "/usr/bin/../lib/gcc/arm-linux-gnueabihf/6.3.0/../../../../include/c++/6.3.0/bits" "cpp_type_traits.h"
	.file	24 "/usr/bin/../lib/gcc/arm-linux-gnueabihf/6.3.0/../../../../include/c++/6.3.0/bits" "char_traits.h"
	.file	25 "/usr/bin/../lib/gcc/arm-linux-gnueabihf/6.3.0/../../../../include/c++/6.3.0/bits" "stl_iterator.h"
	.file	26 "/usr/bin/../lib/gcc/arm-linux-gnueabihf/6.3.0/../../../../include/c++/6.3.0/bits" "stl_iterator_base_types.h"
	.file	27 "/usr/include" "stdlib.h"
	.file	28 "/usr/include/arm-linux-gnueabihf/bits" "stdlib-float.h"
	.file	29 "/usr/include/arm-linux-gnueabihf/bits" "stdlib-bsearch.h"
	.file	30 "/usr/bin/../lib/gcc/arm-linux-gnueabihf/6.3.0/../../../../include/c++/6.3.0" "cstdlib"
	.file	31 "/root/Bela/projects/fft-circular-buffer-peaks/build" "render.cpp"
	.file	32 "/usr/bin/../lib/gcc/arm-linux-gnueabihf/6.3.0/../../../../include/c++/6.3.0/debug" "debug.h"
	.file	33 "/usr/bin/../lib/gcc/arm-linux-gnueabihf/6.3.0/../../../../include/c++/6.3.0/bits" "exception_ptr.h"
	.file	34 "/usr/include/arm-linux-gnueabihf/bits" "math-finite.h"
	.file	35 "/usr/include/arm-linux-gnueabihf/bits" "mathcalls.h"
	.file	36 "/usr/include/arm-linux-gnueabihf/bits" "mathdef.h"
	.file	37 "/usr/include" "wchar.h"
	.file	38 "/usr/include" "libio.h"
	.file	39 "/usr/include/arm-linux-gnueabihf/bits" "types.h"
	.file	40 "/usr/include" "stdio.h"
	.file	41 "/usr/lib/llvm-3.9/bin/../lib/clang/3.9.1/include" "stdarg.h"
	.file	42 "/usr/include" "time.h"
	.file	43 "/usr/include" "stdint.h"
	.file	44 "/usr/include" "locale.h"
	.file	45 "/usr/include" "ctype.h"
	.file	46 "/usr/include" "_G_config.h"
	.file	47 "/usr/include/arm-linux-gnueabihf/bits" "stdio.h"
	.file	48 "/usr/include" "string.h"
	.file	49 "/usr/include" "wctype.h"
	.section	.text._ZN3FftD2Ev,"axG",%progbits,_ZN3FftD2Ev,comdat
	.weak	_ZN3FftD2Ev
	.p2align	2
	.type	_ZN3FftD2Ev,%function
_ZN3FftD2Ev:                            @ @_ZN3FftD2Ev
.Lfunc_begin0:
	.loc	2 15 0                  @ ./libraries/Fft/Fft.h:15:0
	.fnstart
	.cfi_startproc
@ BB#0:
	.save	{r4, r10, r11, lr}
	push	{r4, r10, r11, lr}
.Ltmp3:
	.cfi_def_cfa_offset 16
.Ltmp4:
	.cfi_offset lr, -4
.Ltmp5:
	.cfi_offset r11, -8
.Ltmp6:
	.cfi_offset r10, -12
.Ltmp7:
	.cfi_offset r4, -16
	.setfp	r11, sp, #8
	add	r11, sp, #8
.Ltmp8:
	.cfi_def_cfa r11, 8
	@DEBUG_VALUE: ~Fft:this <- %R0
	mov	r4, r0
.Ltmp9:
	@DEBUG_VALUE: ~Fft:this <- %R4
	.loc	2 15 10 prologue_end    @ ./libraries/Fft/Fft.h:15:10
.Ltmp0:
	bl	_ZN3Fft7cleanupEv
.Ltmp1:
.Ltmp10:
@ BB#1:
	@DEBUG_VALUE: ~Fft:this <- %R4
	.loc	2 15 21 is_stmt 0 discriminator 1 @ ./libraries/Fft/Fft.h:15:21
	mov	r0, r4
	pop	{r4, r10, r11, pc}
.Ltmp11:
.LBB0_2:
	@DEBUG_VALUE: ~Fft:this <- %R4
.Ltmp2:
.Ltmp12:
	.loc	2 15 10 discriminator 2 @ ./libraries/Fft/Fft.h:15:10
	mov	lr, pc
	b	__clang_call_terminate
.Ltmp13:
.Lfunc_end0:
	.size	_ZN3FftD2Ev, .Lfunc_end0-_ZN3FftD2Ev
	.cfi_endproc
	.globl	__gxx_personality_v0
	.personality __gxx_personality_v0
	.handlerdata
	.p2align	2
GCC_except_table0:
.Lexception0:
	.byte	255                     @ @LPStart Encoding = omit
	.byte	0                       @ @TType Encoding = absptr
	.byte	21                      @ @TType base offset
	.byte	3                       @ Call site Encoding = udata4
	.byte	13                      @ Call site table length
	.long	.Ltmp0-.Lfunc_begin0    @ >> Call Site 1 <<
	.long	.Ltmp1-.Ltmp0           @   Call between .Ltmp0 and .Ltmp1
	.long	.Ltmp2-.Lfunc_begin0    @     jumps to .Ltmp2
	.byte	1                       @   On action: 1
	.byte	1                       @ >> Action Record 1 <<
                                        @   Catch TypeInfo 1
	.byte	0                       @   No further actions
                                        @ >> Catch TypeInfos <<
	.long	0                       @ TypeInfo 1
	.p2align	2
	.fnend

	.section	.text._ZNSt6vectorIfSaIfEED2Ev,"axG",%progbits,_ZNSt6vectorIfSaIfEED2Ev,comdat
	.weak	_ZNSt6vectorIfSaIfEED2Ev
	.p2align	2
	.type	_ZNSt6vectorIfSaIfEED2Ev,%function
_ZNSt6vectorIfSaIfEED2Ev:               @ @_ZNSt6vectorIfSaIfEED2Ev
.Lfunc_begin1:
	.loc	9 426 0 is_stmt 1       @ /usr/bin/../lib/gcc/arm-linux-gnueabihf/6.3.0/../../../../include/c++/6.3.0/bits/stl_vector.h:426:0
	.fnstart
	.cfi_startproc
@ BB#0:
	.save	{r4, r10, r11, lr}
	push	{r4, r10, r11, lr}
.Ltmp14:
	.cfi_def_cfa_offset 16
.Ltmp15:
	.cfi_offset lr, -4
.Ltmp16:
	.cfi_offset r11, -8
.Ltmp17:
	.cfi_offset r10, -12
.Ltmp18:
	.cfi_offset r4, -16
	.setfp	r11, sp, #8
	add	r11, sp, #8
.Ltmp19:
	.cfi_def_cfa r11, 8
	@DEBUG_VALUE: ~vector:this <- %R0
	mov	r4, r0
.Ltmp20:
	@DEBUG_VALUE: ~vector:this <- %R4
	.loc	9 160 37 prologue_end   @ /usr/bin/../lib/gcc/arm-linux-gnueabihf/6.3.0/../../../../include/c++/6.3.0/bits/stl_vector.h:160:37
	ldr	r0, [r4]
.Ltmp21:
	@DEBUG_VALUE: _M_deallocate:__p <- %R0
	@DEBUG_VALUE: deallocate:__p <- %R0
	@DEBUG_VALUE: deallocate:__p <- %R0
	.loc	9 177 6                 @ /usr/bin/../lib/gcc/arm-linux-gnueabihf/6.3.0/../../../../include/c++/6.3.0/bits/stl_vector.h:177:6
	cmp	r0, #0
	beq	.LBB1_2
.Ltmp22:
@ BB#1:
	@DEBUG_VALUE: deallocate:__p <- %R0
	@DEBUG_VALUE: deallocate:__p <- %R0
	@DEBUG_VALUE: _M_deallocate:__p <- %R0
	@DEBUG_VALUE: ~vector:this <- %R4
	.loc	5 110 9                 @ /usr/bin/../lib/gcc/arm-linux-gnueabihf/6.3.0/../../../../include/c++/6.3.0/ext/new_allocator.h:110:9
	bl	_ZdlPv
.Ltmp23:
.LBB1_2:                                @ %_ZNSt12_Vector_baseIfSaIfEED2Ev.exit
	@DEBUG_VALUE: ~vector:this <- %R4
	.loc	9 427 33 discriminator 1 @ /usr/bin/../lib/gcc/arm-linux-gnueabihf/6.3.0/../../../../include/c++/6.3.0/bits/stl_vector.h:427:33
	mov	r0, r4
	pop	{r4, r10, r11, pc}
.Ltmp24:
.Lfunc_end1:
	.size	_ZNSt6vectorIfSaIfEED2Ev, .Lfunc_end1-_ZNSt6vectorIfSaIfEED2Ev
	.cfi_endproc
	.fnend

	.section	.text._ZN14MonoFilePlayerD2Ev,"axG",%progbits,_ZN14MonoFilePlayerD2Ev,comdat
	.weak	_ZN14MonoFilePlayerD2Ev
	.p2align	2
	.type	_ZN14MonoFilePlayerD2Ev,%function
_ZN14MonoFilePlayerD2Ev:                @ @_ZN14MonoFilePlayerD2Ev
.Lfunc_begin2:
	.loc	13 42 0                 @ /root/Bela/projects/fft-circular-buffer-peaks/MonoFilePlayer.h:42:0
	.fnstart
	.cfi_startproc
@ BB#0:
	.save	{r4, r10, r11, lr}
	push	{r4, r10, r11, lr}
.Ltmp25:
	.cfi_def_cfa_offset 16
.Ltmp26:
	.cfi_offset lr, -4
.Ltmp27:
	.cfi_offset r11, -8
.Ltmp28:
	.cfi_offset r10, -12
.Ltmp29:
	.cfi_offset r4, -16
	.setfp	r11, sp, #8
	add	r11, sp, #8
.Ltmp30:
	.cfi_def_cfa r11, 8
	@DEBUG_VALUE: ~MonoFilePlayer:this <- %R0
	mov	r4, r0
.Ltmp31:
	@DEBUG_VALUE: ~MonoFilePlayer:this <- %R4
	.loc	9 160 37 prologue_end   @ /usr/bin/../lib/gcc/arm-linux-gnueabihf/6.3.0/../../../../include/c++/6.3.0/bits/stl_vector.h:160:37
	ldr	r0, [r4]
.Ltmp32:
	@DEBUG_VALUE: _M_deallocate:__p <- %R0
	@DEBUG_VALUE: deallocate:__p <- %R0
	@DEBUG_VALUE: deallocate:__p <- %R0
	.loc	9 177 6                 @ /usr/bin/../lib/gcc/arm-linux-gnueabihf/6.3.0/../../../../include/c++/6.3.0/bits/stl_vector.h:177:6
	cmp	r0, #0
	beq	.LBB2_2
.Ltmp33:
@ BB#1:
	@DEBUG_VALUE: deallocate:__p <- %R0
	@DEBUG_VALUE: deallocate:__p <- %R0
	@DEBUG_VALUE: _M_deallocate:__p <- %R0
	@DEBUG_VALUE: ~MonoFilePlayer:this <- %R4
	.loc	5 110 9                 @ /usr/bin/../lib/gcc/arm-linux-gnueabihf/6.3.0/../../../../include/c++/6.3.0/ext/new_allocator.h:110:9
	bl	_ZdlPv
.Ltmp34:
.LBB2_2:                                @ %_ZNSt6vectorIfSaIfEED2Ev.exit
	@DEBUG_VALUE: ~MonoFilePlayer:this <- %R4
	.loc	13 42 21                @ /root/Bela/projects/fft-circular-buffer-peaks/MonoFilePlayer.h:42:21
	mov	r0, r4
	pop	{r4, r10, r11, pc}
.Ltmp35:
.Lfunc_end2:
	.size	_ZN14MonoFilePlayerD2Ev, .Lfunc_end2-_ZN14MonoFilePlayerD2Ev
	.cfi_endproc
	.fnend

	.text
	.globl	setup
	.p2align	2
	.type	setup,%function
setup:                                  @ @setup
.Lfunc_begin3:
	.loc	11 44 0                 @ /root/Bela/projects/fft-circular-buffer-peaks/render.cpp:44:0
	.fnstart
	.cfi_startproc
@ BB#0:
	.save	{r4, r5, r6, r10, r11, lr}
	push	{r4, r5, r6, r10, r11, lr}
.Ltmp42:
	.cfi_def_cfa_offset 24
.Ltmp43:
	.cfi_offset lr, -4
.Ltmp44:
	.cfi_offset r11, -8
.Ltmp45:
	.cfi_offset r10, -12
.Ltmp46:
	.cfi_offset r6, -16
.Ltmp47:
	.cfi_offset r5, -20
.Ltmp48:
	.cfi_offset r4, -24
	.setfp	r11, sp, #16
	add	r11, sp, #16
.Ltmp49:
	.cfi_def_cfa r11, 8
	.pad	#64
	sub	sp, sp, #64
	@DEBUG_VALUE: setup:context <- %R0
	@DEBUG_VALUE: setup:userData <- %R1
.Ltmp50:
	.loc	11 46 14 prologue_end   @ /root/Bela/projects/fft-circular-buffer-peaks/render.cpp:46:14
	movw	r6, :lower16:.L_MergedGlobals
	movw	r5, :lower16:gPlayer
	movt	r6, :upper16:.L_MergedGlobals
	add	r1, r6, #36
.Ltmp51:
	@DEBUG_VALUE: _M_data:this <- %R1
	@DEBUG_VALUE: c_str:this <- %R1
	movt	r5, :upper16:gPlayer
	mov	r4, r0
.Ltmp52:
	@DEBUG_VALUE: setup:context <- %R4
	mov	r0, r5
	mov	r2, #1
	mov	r3, #1
	bl	_ZN14MonoFilePlayer5setupERKNSt7__cxx1112basic_stringIcSt11char_traitsIcESaIcEEEbb
.Ltmp53:
	.loc	22 136 28               @ /usr/bin/../lib/gcc/arm-linux-gnueabihf/6.3.0/../../../../include/c++/6.3.0/bits/basic_string.h:136:28
	ldr	r1, [r6, #36]
.Ltmp54:
	.loc	11 46 5                 @ /root/Bela/projects/fft-circular-buffer-peaks/render.cpp:46:5
	cmp	r0, #0
	beq	.LBB3_3
.Ltmp55:
@ BB#1:
	@DEBUG_VALUE: setup:context <- %R4
	.loc	9 656 66                @ /usr/bin/../lib/gcc/arm-linux-gnueabihf/6.3.0/../../../../include/c++/6.3.0/bits/stl_vector.h:656:66
	ldm	r5, {r0, r2}
	.loc	9 656 50 is_stmt 0      @ /usr/bin/../lib/gcc/arm-linux-gnueabihf/6.3.0/../../../../include/c++/6.3.0/bits/stl_vector.h:656:50
	sub	r0, r2, r0
.Ltmp56:
	.loc	11 54 34 is_stmt 1      @ /root/Bela/projects/fft-circular-buffer-peaks/render.cpp:54:34
	vldr	s0, [r4, #32]
.Ltmp57:
	.loc	9 656 50                @ /usr/bin/../lib/gcc/arm-linux-gnueabihf/6.3.0/../../../../include/c++/6.3.0/bits/stl_vector.h:656:50
	asr	r2, r0, #2
.Ltmp58:
	.loc	11 52 5                 @ /root/Bela/projects/fft-circular-buffer-peaks/render.cpp:52:5
	movw	r0, :lower16:.L.str.6
	.loc	11 54 8                 @ /root/Bela/projects/fft-circular-buffer-peaks/render.cpp:54:8
	vmov	s2, r2
	.loc	11 52 5                 @ /root/Bela/projects/fft-circular-buffer-peaks/render.cpp:52:5
	movt	r0, :upper16:.L.str.6
	.loc	11 54 8                 @ /root/Bela/projects/fft-circular-buffer-peaks/render.cpp:54:8
	vcvt.f32.u32	d1, d1
	.loc	11 54 23 is_stmt 0      @ /root/Bela/projects/fft-circular-buffer-peaks/render.cpp:54:23
	vdiv.f32	s0, s2, s0
	.loc	11 54 8                 @ /root/Bela/projects/fft-circular-buffer-peaks/render.cpp:54:8
	vcvt.f64.f32	d16, s0
	.loc	11 52 5 is_stmt 1       @ /root/Bela/projects/fft-circular-buffer-peaks/render.cpp:52:5
	vstr	d16, [sp]
	bl	rt_printf
	.loc	11 57 7                 @ /root/Bela/projects/fft-circular-buffer-peaks/render.cpp:57:7
	add	r0, r6, #20
	mov	r1, #1024
	bl	_ZN3Fft5setupEj
.Ltmp59:
	@DEBUG_VALUE: resize:__new_size <- 16384
	.loc	9 656 66                @ /usr/bin/../lib/gcc/arm-linux-gnueabihf/6.3.0/../../../../include/c++/6.3.0/bits/stl_vector.h:656:66
	ldrd	r0, r1, [r6, #8]
	mov	r2, #0
	.loc	9 656 50 is_stmt 0      @ /usr/bin/../lib/gcc/arm-linux-gnueabihf/6.3.0/../../../../include/c++/6.3.0/bits/stl_vector.h:656:50
	sub	r1, r1, r0
	asr	r1, r1, #2
.Ltmp60:
	.loc	9 676 6 is_stmt 1       @ /usr/bin/../lib/gcc/arm-linux-gnueabihf/6.3.0/../../../../include/c++/6.3.0/bits/stl_vector.h:676:6
	cmp	r2, r1, lsr #14
.Ltmp61:
	@DEBUG_VALUE: size:this <- %R5
	@DEBUG_VALUE: size:this <- %R5
	bne	.LBB3_4
.Ltmp62:
@ BB#2:
	@DEBUG_VALUE: size:this <- %R5
	@DEBUG_VALUE: size:this <- %R5
	@DEBUG_VALUE: setup:context <- %R4
	.loc	9 677 4 discriminator 1 @ /usr/bin/../lib/gcc/arm-linux-gnueabihf/6.3.0/../../../../include/c++/6.3.0/bits/stl_vector.h:677:4
	add	r0, r6, #8
.Ltmp63:
	@DEBUG_VALUE: _M_erase_at_end:this <- %R0
	.loc	9 677 33 is_stmt 0      @ /usr/bin/../lib/gcc/arm-linux-gnueabihf/6.3.0/../../../../include/c++/6.3.0/bits/stl_vector.h:677:33
	rsb	r1, r1, #16384
	.loc	9 677 4 discriminator 1 @ /usr/bin/../lib/gcc/arm-linux-gnueabihf/6.3.0/../../../../include/c++/6.3.0/bits/stl_vector.h:677:4
	bl	_ZNSt6vectorIfSaIfEE17_M_default_appendEj
.Ltmp64:
	b	.LBB3_5
.Ltmp65:
.LBB3_3:
	@DEBUG_VALUE: setup:context <- %R4
	.loc	11 47 6 is_stmt 1 discriminator 1 @ /root/Bela/projects/fft-circular-buffer-peaks/render.cpp:47:6
	movw	r0, :lower16:.L.str.5
	movt	r0, :upper16:.L.str.5
	bl	rt_printf
	mov	r4, #0
.Ltmp66:
	b	.LBB3_18
.Ltmp67:
.LBB3_4:
	@DEBUG_VALUE: size:this <- %R5
	@DEBUG_VALUE: size:this <- %R5
	@DEBUG_VALUE: setup:context <- %R4
	.loc	9 678 11                @ /usr/bin/../lib/gcc/arm-linux-gnueabihf/6.3.0/../../../../include/c++/6.3.0/bits/stl_vector.h:678:11
	cmp	r1, #16384
.Ltmp68:
	.loc	9 679 43                @ /usr/bin/../lib/gcc/arm-linux-gnueabihf/6.3.0/../../../../include/c++/6.3.0/bits/stl_vector.h:679:43
	addne	r0, r0, #65536
.Ltmp69:
	@DEBUG_VALUE: _M_erase_at_end:__pos <- %R0
	.loc	9 1437 26               @ /usr/bin/../lib/gcc/arm-linux-gnueabihf/6.3.0/../../../../include/c++/6.3.0/bits/stl_vector.h:1437:26
	strne	r0, [r6, #12]
.Ltmp70:
.LBB3_5:                                @ %_ZNSt6vectorIfSaIfEE6resizeEj.exit
	@DEBUG_VALUE: size:this <- %R5
	@DEBUG_VALUE: size:this <- %R5
	@DEBUG_VALUE: setup:context <- %R4
	.loc	11 61 21                @ /root/Bela/projects/fft-circular-buffer-peaks/render.cpp:61:21
	add	r4, r4, #92
.Ltmp71:
	@DEBUG_VALUE: basic_string:__s <- %R4
	@DEBUG_VALUE: length:__s <- %R4
	@DEBUG_VALUE: _M_construct<const char *>:__beg <- %R4
	@DEBUG_VALUE: _M_construct_aux<const char *>:__beg <- %R4
	@DEBUG_VALUE: _M_construct<const char *>:__beg <- %R4
	@DEBUG_VALUE: _S_copy_chars:__k1 <- %R4
	@DEBUG_VALUE: _S_copy:__s <- %R4
	@DEBUG_VALUE: assign:__c2 <- %R4
	add	r0, sp, #36
.Ltmp72:
	@DEBUG_VALUE: _M_construct<const char *>:this <- %R0
	@DEBUG_VALUE: _M_construct_aux<const char *>:this <- %R0
	@DEBUG_VALUE: _M_construct<const char *>:this <- %R0
	@DEBUG_VALUE: _M_local_data:this <- %R0
	.loc	22 142 51               @ /usr/bin/../lib/gcc/arm-linux-gnueabihf/6.3.0/../../../../include/c++/6.3.0/bits/basic_string.h:142:51
	add	r6, r0, #8
.Ltmp73:
	.loc	22 110 25               @ /usr/bin/../lib/gcc/arm-linux-gnueabihf/6.3.0/../../../../include/c++/6.3.0/bits/basic_string.h:110:25
	str	r6, [sp, #36]
.Ltmp74:
	.loc	24 267 16               @ /usr/bin/../lib/gcc/arm-linux-gnueabihf/6.3.0/../../../../include/c++/6.3.0/bits/char_traits.h:267:16
	mov	r0, r4
.Ltmp75:
	bl	strlen
	mov	r5, r0
.Ltmp76:
	@DEBUG_VALUE: _M_construct<const char *>:__dnew <- %R5
	@DEBUG_VALUE: _S_copy:__n <- %R5
	.file	50 "/usr/bin/../lib/gcc/arm-linux-gnueabihf/6.3.0/../../../../include/c++/6.3.0/bits" "basic_string.tcc"
	.loc	50 217 6                @ /usr/bin/../lib/gcc/arm-linux-gnueabihf/6.3.0/../../../../include/c++/6.3.0/bits/basic_string.tcc:217:6
	cmp	r5, #15
	.loc	50 215 12               @ /usr/bin/../lib/gcc/arm-linux-gnueabihf/6.3.0/../../../../include/c++/6.3.0/bits/basic_string.tcc:215:12
	str	r5, [r11, #-20]
	bls	.LBB3_8
.Ltmp77:
@ BB#6:                                 @ %.noexc8.i
	@DEBUG_VALUE: _S_copy:__n <- %R5
	@DEBUG_VALUE: _M_construct<const char *>:__dnew <- %R5
	@DEBUG_VALUE: assign:__c2 <- %R4
	@DEBUG_VALUE: _S_copy:__s <- %R4
	@DEBUG_VALUE: _S_copy_chars:__k1 <- %R4
	@DEBUG_VALUE: _M_construct<const char *>:__beg <- %R4
	@DEBUG_VALUE: _M_construct_aux<const char *>:__beg <- %R4
	@DEBUG_VALUE: _M_construct<const char *>:__beg <- %R4
	@DEBUG_VALUE: length:__s <- %R4
	@DEBUG_VALUE: basic_string:__s <- %R4
	.loc	50 219 14               @ /usr/bin/../lib/gcc/arm-linux-gnueabihf/6.3.0/../../../../include/c++/6.3.0/bits/basic_string.tcc:219:14
.Ltmp36:
	add	r0, sp, #36
	sub	r1, r11, #20
.Ltmp78:
	@DEBUG_VALUE: _M_construct<const char *>:__dnew <- [%R1+0]
	mov	r2, #0
	bl	_ZNSt7__cxx1112basic_stringIcSt11char_traitsIcESaIcEE9_M_createERjj
.Ltmp79:
.Ltmp37:
.Ltmp80:
@ BB#7:                                 @ %.noexc
	@DEBUG_VALUE: _S_copy:__n <- %R5
	@DEBUG_VALUE: assign:__c2 <- %R4
	@DEBUG_VALUE: _S_copy:__s <- %R4
	@DEBUG_VALUE: _S_copy_chars:__k1 <- %R4
	@DEBUG_VALUE: _M_construct<const char *>:__beg <- %R4
	@DEBUG_VALUE: _M_construct_aux<const char *>:__beg <- %R4
	@DEBUG_VALUE: _M_construct<const char *>:__beg <- %R4
	@DEBUG_VALUE: length:__s <- %R4
	@DEBUG_VALUE: basic_string:__s <- %R4
	@DEBUG_VALUE: _M_data:__p <- %R0
	.loc	50 220 18               @ /usr/bin/../lib/gcc/arm-linux-gnueabihf/6.3.0/../../../../include/c++/6.3.0/bits/basic_string.tcc:220:18
	ldr	r1, [r11, #-20]
.Ltmp81:
	@DEBUG_VALUE: _M_capacity:__capacity <- %R1
	@DEBUG_VALUE: _M_construct<const char *>:__dnew <- %R1
	.loc	22 128 26               @ /usr/bin/../lib/gcc/arm-linux-gnueabihf/6.3.0/../../../../include/c++/6.3.0/bits/basic_string.h:128:26
	str	r0, [sp, #36]
.Ltmp82:
	.loc	22 160 31               @ /usr/bin/../lib/gcc/arm-linux-gnueabihf/6.3.0/../../../../include/c++/6.3.0/bits/basic_string.h:160:31
	str	r1, [sp, #44]
	b	.LBB3_9
.Ltmp83:
.LBB3_8:                                @ %._crit_edge.i.i.i.i
	@DEBUG_VALUE: _S_copy:__n <- %R5
	@DEBUG_VALUE: _M_construct<const char *>:__dnew <- %R5
	@DEBUG_VALUE: assign:__c2 <- %R4
	@DEBUG_VALUE: _S_copy:__s <- %R4
	@DEBUG_VALUE: _S_copy_chars:__k1 <- %R4
	@DEBUG_VALUE: _M_construct<const char *>:__beg <- %R4
	@DEBUG_VALUE: _M_construct_aux<const char *>:__beg <- %R4
	@DEBUG_VALUE: _M_construct<const char *>:__beg <- %R4
	@DEBUG_VALUE: length:__s <- %R4
	@DEBUG_VALUE: basic_string:__s <- %R4
	.loc	22 136 28               @ /usr/bin/../lib/gcc/arm-linux-gnueabihf/6.3.0/../../../../include/c++/6.3.0/bits/basic_string.h:136:28
	mov	r0, r6
.Ltmp84:
.LBB3_9:
	@DEBUG_VALUE: _S_copy:__n <- %R5
	@DEBUG_VALUE: assign:__c2 <- %R4
	@DEBUG_VALUE: _S_copy:__s <- %R4
	@DEBUG_VALUE: _S_copy_chars:__k1 <- %R4
	@DEBUG_VALUE: _M_construct<const char *>:__beg <- %R4
	@DEBUG_VALUE: _M_construct_aux<const char *>:__beg <- %R4
	@DEBUG_VALUE: _M_construct<const char *>:__beg <- %R4
	@DEBUG_VALUE: length:__s <- %R4
	@DEBUG_VALUE: basic_string:__s <- %R4
	.loc	22 297 6                @ /usr/bin/../lib/gcc/arm-linux-gnueabihf/6.3.0/../../../../include/c++/6.3.0/bits/basic_string.h:297:6
	cmp	r5, #0
	beq	.LBB3_13
.Ltmp85:
@ BB#10:
	@DEBUG_VALUE: _S_copy:__n <- %R5
	@DEBUG_VALUE: assign:__c2 <- %R4
	@DEBUG_VALUE: _S_copy:__s <- %R4
	@DEBUG_VALUE: _S_copy_chars:__k1 <- %R4
	@DEBUG_VALUE: _M_construct<const char *>:__beg <- %R4
	@DEBUG_VALUE: _M_construct_aux<const char *>:__beg <- %R4
	@DEBUG_VALUE: _M_construct<const char *>:__beg <- %R4
	@DEBUG_VALUE: length:__s <- %R4
	@DEBUG_VALUE: basic_string:__s <- %R4
	cmp	r5, #1
	bne	.LBB3_12
.Ltmp86:
@ BB#11:
	@DEBUG_VALUE: _S_copy:__n <- %R5
	@DEBUG_VALUE: assign:__c2 <- %R4
	@DEBUG_VALUE: _S_copy:__s <- %R4
	@DEBUG_VALUE: _S_copy_chars:__k1 <- %R4
	@DEBUG_VALUE: _M_construct<const char *>:__beg <- %R4
	@DEBUG_VALUE: _M_construct_aux<const char *>:__beg <- %R4
	@DEBUG_VALUE: _M_construct<const char *>:__beg <- %R4
	@DEBUG_VALUE: length:__s <- %R4
	@DEBUG_VALUE: basic_string:__s <- %R4
	.loc	24 243 16               @ /usr/bin/../lib/gcc/arm-linux-gnueabihf/6.3.0/../../../../include/c++/6.3.0/bits/char_traits.h:243:16
	ldrb	r1, [r4]
.Ltmp87:
	@DEBUG_VALUE: _S_copy_chars:__p <- %R0
	.loc	24 243 14 is_stmt 0     @ /usr/bin/../lib/gcc/arm-linux-gnueabihf/6.3.0/../../../../include/c++/6.3.0/bits/char_traits.h:243:14
	strb	r1, [r0]
	b	.LBB3_13
.Ltmp88:
.LBB3_12:
	@DEBUG_VALUE: _S_copy:__n <- %R5
	@DEBUG_VALUE: assign:__c2 <- %R4
	@DEBUG_VALUE: _S_copy:__s <- %R4
	@DEBUG_VALUE: _S_copy_chars:__k1 <- %R4
	@DEBUG_VALUE: _M_construct<const char *>:__beg <- %R4
	@DEBUG_VALUE: _M_construct_aux<const char *>:__beg <- %R4
	@DEBUG_VALUE: _M_construct<const char *>:__beg <- %R4
	@DEBUG_VALUE: length:__s <- %R4
	@DEBUG_VALUE: basic_string:__s <- %R4
	.loc	24 290 33 is_stmt 1     @ /usr/bin/../lib/gcc/arm-linux-gnueabihf/6.3.0/../../../../include/c++/6.3.0/bits/char_traits.h:290:33
	mov	r1, r4
	mov	r2, r5
	bl	memcpy
.Ltmp89:
.LBB3_13:                               @ %._crit_edge.i.i.i.i11
	@DEBUG_VALUE: _S_copy:__n <- %R5
	@DEBUG_VALUE: assign:__c2 <- %R4
	@DEBUG_VALUE: _S_copy:__s <- %R4
	@DEBUG_VALUE: _S_copy_chars:__k1 <- %R4
	@DEBUG_VALUE: _M_construct<const char *>:__beg <- %R4
	@DEBUG_VALUE: _M_construct_aux<const char *>:__beg <- %R4
	@DEBUG_VALUE: _M_construct<const char *>:__beg <- %R4
	@DEBUG_VALUE: length:__s <- %R4
	@DEBUG_VALUE: basic_string:__s <- %R4
	.loc	50 232 16               @ /usr/bin/../lib/gcc/arm-linux-gnueabihf/6.3.0/../../../../include/c++/6.3.0/bits/basic_string.tcc:232:16
	ldr	r0, [r11, #-20]
.Ltmp90:
	@DEBUG_VALUE: _M_set_length:__n <- %R0
	@DEBUG_VALUE: _M_length:__length <- %R0
	@DEBUG_VALUE: _M_construct<const char *>:__dnew <- %R0
	.loc	24 243 14               @ /usr/bin/../lib/gcc/arm-linux-gnueabihf/6.3.0/../../../../include/c++/6.3.0/bits/char_traits.h:243:14
	mov	r2, #0
.Ltmp91:
	.loc	22 132 26               @ /usr/bin/../lib/gcc/arm-linux-gnueabihf/6.3.0/../../../../include/c++/6.3.0/bits/basic_string.h:132:26
	str	r0, [sp, #40]
	add	r3, sp, #8
.Ltmp92:
	@DEBUG_VALUE: _M_data:this <- %R3
	@DEBUG_VALUE: _M_length:this <- %R3
	@DEBUG_VALUE: _M_set_length:__n <- 3
	@DEBUG_VALUE: _M_set_length:this <- %R3
	@DEBUG_VALUE: _M_data:this <- %R3
	@DEBUG_VALUE: _M_construct<const char *>:__dnew <- 3
	@DEBUG_VALUE: _M_construct<const char *>:this <- %R3
	@DEBUG_VALUE: _M_construct_aux<const char *>:this <- %R3
	@DEBUG_VALUE: _M_construct<const char *>:this <- %R3
	@DEBUG_VALUE: _S_copy_chars:__p <- %R5
	@DEBUG_VALUE: _S_copy:__d <- %R5
	@DEBUG_VALUE: _M_local_data:this <- %R3
	.loc	22 136 28               @ /usr/bin/../lib/gcc/arm-linux-gnueabihf/6.3.0/../../../../include/c++/6.3.0/bits/basic_string.h:136:28
	ldr	r1, [sp, #36]
.Ltmp93:
	.loc	22 142 51               @ /usr/bin/../lib/gcc/arm-linux-gnueabihf/6.3.0/../../../../include/c++/6.3.0/bits/basic_string.h:142:51
	add	r5, r3, #8
.Ltmp94:
	.loc	24 243 14               @ /usr/bin/../lib/gcc/arm-linux-gnueabihf/6.3.0/../../../../include/c++/6.3.0/bits/char_traits.h:243:14
	strb	r2, [r1, r0]
.Ltmp95:
	.loc	24 290 33               @ /usr/bin/../lib/gcc/arm-linux-gnueabihf/6.3.0/../../../../include/c++/6.3.0/bits/char_traits.h:290:33
	mov	r0, #105
.Ltmp96:
	@DEBUG_VALUE: _S_copy:__n <- 3
	.loc	22 110 25               @ /usr/bin/../lib/gcc/arm-linux-gnueabihf/6.3.0/../../../../include/c++/6.3.0/bits/basic_string.h:110:25
	str	r5, [sp, #8]
.Ltmp97:
	.loc	24 290 33               @ /usr/bin/../lib/gcc/arm-linux-gnueabihf/6.3.0/../../../../include/c++/6.3.0/bits/char_traits.h:290:33
	strb	r0, [sp, #18]
	movw	r0, #30055
	strh	r0, [sp, #16]
	mov	r0, #3
.Ltmp98:
	@DEBUG_VALUE: _M_length:__length <- 3
	.loc	22 132 26               @ /usr/bin/../lib/gcc/arm-linux-gnueabihf/6.3.0/../../../../include/c++/6.3.0/bits/basic_string.h:132:26
	str	r0, [sp, #12]
.Ltmp99:
	.loc	24 243 14               @ /usr/bin/../lib/gcc/arm-linux-gnueabihf/6.3.0/../../../../include/c++/6.3.0/bits/char_traits.h:243:14
	strb	r2, [sp, #19]
.Ltmp100:
	.loc	11 61 15 discriminator 2 @ /root/Bela/projects/fft-circular-buffer-peaks/render.cpp:61:15
.Ltmp39:
	movw	r0, :lower16:gSpectrumGui
	add	r1, sp, #36
.Ltmp101:
	@DEBUG_VALUE: _M_data:this <- %R1
	@DEBUG_VALUE: _M_length:this <- %R1
	movt	r0, :upper16:gSpectrumGui
	movw	r2, #5555
	bl	_ZN3Gui5setupENSt7__cxx1112basic_stringIcSt11char_traitsIcESaIcEEEjS5_
.Ltmp102:
.Ltmp40:
.Ltmp103:
@ BB#14:
	@DEBUG_VALUE: assign:__c2 <- %R4
	@DEBUG_VALUE: _S_copy:__s <- %R4
	@DEBUG_VALUE: _S_copy_chars:__k1 <- %R4
	@DEBUG_VALUE: _M_construct<const char *>:__beg <- %R4
	@DEBUG_VALUE: _M_construct_aux<const char *>:__beg <- %R4
	@DEBUG_VALUE: _M_construct<const char *>:__beg <- %R4
	@DEBUG_VALUE: length:__s <- %R4
	@DEBUG_VALUE: basic_string:__s <- %R4
	.loc	22 136 28               @ /usr/bin/../lib/gcc/arm-linux-gnueabihf/6.3.0/../../../../include/c++/6.3.0/bits/basic_string.h:136:28
	ldr	r0, [sp, #8]
.Ltmp104:
	@DEBUG_VALUE: deallocate:__p <- %R0
	@DEBUG_VALUE: deallocate:__p <- %R0
	.loc	22 180 6                @ /usr/bin/../lib/gcc/arm-linux-gnueabihf/6.3.0/../../../../include/c++/6.3.0/bits/basic_string.h:180:6
	cmp	r0, r5
	beq	.LBB3_16
.Ltmp105:
@ BB#15:
	@DEBUG_VALUE: deallocate:__p <- %R0
	@DEBUG_VALUE: deallocate:__p <- %R0
	@DEBUG_VALUE: assign:__c2 <- %R4
	@DEBUG_VALUE: _S_copy:__s <- %R4
	@DEBUG_VALUE: _S_copy_chars:__k1 <- %R4
	@DEBUG_VALUE: _M_construct<const char *>:__beg <- %R4
	@DEBUG_VALUE: _M_construct_aux<const char *>:__beg <- %R4
	@DEBUG_VALUE: _M_construct<const char *>:__beg <- %R4
	@DEBUG_VALUE: length:__s <- %R4
	@DEBUG_VALUE: basic_string:__s <- %R4
	.loc	5 110 9                 @ /usr/bin/../lib/gcc/arm-linux-gnueabihf/6.3.0/../../../../include/c++/6.3.0/ext/new_allocator.h:110:9
	bl	_ZdlPv
.Ltmp106:
.LBB3_16:                               @ %_ZNSt7__cxx1112basic_stringIcSt11char_traitsIcESaIcEED2Ev.exit9
	@DEBUG_VALUE: assign:__c2 <- %R4
	@DEBUG_VALUE: _S_copy:__s <- %R4
	@DEBUG_VALUE: _S_copy_chars:__k1 <- %R4
	@DEBUG_VALUE: _M_construct<const char *>:__beg <- %R4
	@DEBUG_VALUE: _M_construct_aux<const char *>:__beg <- %R4
	@DEBUG_VALUE: _M_construct<const char *>:__beg <- %R4
	@DEBUG_VALUE: length:__s <- %R4
	@DEBUG_VALUE: basic_string:__s <- %R4
	.loc	22 136 28               @ /usr/bin/../lib/gcc/arm-linux-gnueabihf/6.3.0/../../../../include/c++/6.3.0/bits/basic_string.h:136:28
	ldr	r0, [sp, #36]
.Ltmp107:
	@DEBUG_VALUE: deallocate:__p <- %R0
	@DEBUG_VALUE: deallocate:__p <- %R0
	mov	r4, #1
.Ltmp108:
	.loc	22 180 6                @ /usr/bin/../lib/gcc/arm-linux-gnueabihf/6.3.0/../../../../include/c++/6.3.0/bits/basic_string.h:180:6
	cmp	r0, r6
	beq	.LBB3_18
.Ltmp109:
@ BB#17:
	@DEBUG_VALUE: deallocate:__p <- %R0
	@DEBUG_VALUE: deallocate:__p <- %R0
	.loc	5 110 9                 @ /usr/bin/../lib/gcc/arm-linux-gnueabihf/6.3.0/../../../../include/c++/6.3.0/ext/new_allocator.h:110:9
	bl	_ZdlPv
.Ltmp110:
.LBB3_18:                               @ %_ZNSt7__cxx1112basic_stringIcSt11char_traitsIcESaIcEED2Ev.exit8
	.loc	11 64 1 discriminator 2 @ /root/Bela/projects/fft-circular-buffer-peaks/render.cpp:64:1
	mov	r0, r4
	sub	sp, r11, #16
	pop	{r4, r5, r6, r10, r11, pc}
.LBB3_19:
.Ltmp111:
	@DEBUG_VALUE: _S_copy:__n <- %R5
	@DEBUG_VALUE: assign:__c2 <- %R4
	@DEBUG_VALUE: _S_copy:__s <- %R4
	@DEBUG_VALUE: _S_copy_chars:__k1 <- %R4
	@DEBUG_VALUE: _M_construct<const char *>:__beg <- %R4
	@DEBUG_VALUE: _M_construct_aux<const char *>:__beg <- %R4
	@DEBUG_VALUE: _M_construct<const char *>:__beg <- %R4
	@DEBUG_VALUE: length:__s <- %R4
	@DEBUG_VALUE: basic_string:__s <- %R4
.Ltmp38:
	mov	lr, pc
	b	_Unwind_Resume
.Ltmp112:
.LBB3_20:
	@DEBUG_VALUE: assign:__c2 <- %R4
	@DEBUG_VALUE: _S_copy:__s <- %R4
	@DEBUG_VALUE: _S_copy_chars:__k1 <- %R4
	@DEBUG_VALUE: _M_construct<const char *>:__beg <- %R4
	@DEBUG_VALUE: _M_construct_aux<const char *>:__beg <- %R4
	@DEBUG_VALUE: _M_construct<const char *>:__beg <- %R4
	@DEBUG_VALUE: length:__s <- %R4
	@DEBUG_VALUE: basic_string:__s <- %R4
.Ltmp41:
	mov	r4, r0
.Ltmp113:
	.loc	22 136 28               @ /usr/bin/../lib/gcc/arm-linux-gnueabihf/6.3.0/../../../../include/c++/6.3.0/bits/basic_string.h:136:28
	ldr	r0, [sp, #8]
.Ltmp114:
	@DEBUG_VALUE: deallocate:__p <- %R0
	@DEBUG_VALUE: deallocate:__p <- %R0
	.loc	22 180 6                @ /usr/bin/../lib/gcc/arm-linux-gnueabihf/6.3.0/../../../../include/c++/6.3.0/bits/basic_string.h:180:6
	cmp	r0, r5
	beq	.LBB3_22
.Ltmp115:
@ BB#21:
	@DEBUG_VALUE: deallocate:__p <- %R0
	@DEBUG_VALUE: deallocate:__p <- %R0
	.loc	5 110 9                 @ /usr/bin/../lib/gcc/arm-linux-gnueabihf/6.3.0/../../../../include/c++/6.3.0/ext/new_allocator.h:110:9
	bl	_ZdlPv
.Ltmp116:
.LBB3_22:                               @ %_ZNSt7__cxx1112basic_stringIcSt11char_traitsIcESaIcEED2Ev.exit7
	.loc	22 136 28               @ /usr/bin/../lib/gcc/arm-linux-gnueabihf/6.3.0/../../../../include/c++/6.3.0/bits/basic_string.h:136:28
	ldr	r0, [sp, #36]
.Ltmp117:
	@DEBUG_VALUE: deallocate:__p <- %R0
	@DEBUG_VALUE: deallocate:__p <- %R0
	.loc	22 180 6                @ /usr/bin/../lib/gcc/arm-linux-gnueabihf/6.3.0/../../../../include/c++/6.3.0/bits/basic_string.h:180:6
	cmp	r0, r6
	beq	.LBB3_24
.Ltmp118:
@ BB#23:
	@DEBUG_VALUE: deallocate:__p <- %R0
	@DEBUG_VALUE: deallocate:__p <- %R0
	.loc	5 110 9                 @ /usr/bin/../lib/gcc/arm-linux-gnueabihf/6.3.0/../../../../include/c++/6.3.0/ext/new_allocator.h:110:9
	bl	_ZdlPv
.Ltmp119:
.LBB3_24:                               @ %_ZNSt7__cxx1112basic_stringIcSt11char_traitsIcESaIcEED2Ev.exit
	mov	r0, r4
	mov	lr, pc
	b	_Unwind_Resume
.Lfunc_end3:
	.size	setup, .Lfunc_end3-setup
	.cfi_endproc
	.globl	__gxx_personality_v0
	.personality __gxx_personality_v0
	.handlerdata
	.p2align	2
GCC_except_table3:
.Lexception1:
	.byte	255                     @ @LPStart Encoding = omit
	.byte	0                       @ @TType Encoding = absptr
	.asciz	"\303\200"              @ @TType base offset
	.byte	3                       @ Call site Encoding = udata4
	.byte	65                      @ Call site table length
	.long	.Lfunc_begin3-.Lfunc_begin3 @ >> Call Site 1 <<
	.long	.Ltmp36-.Lfunc_begin3   @   Call between .Lfunc_begin3 and .Ltmp36
	.long	0                       @     has no landing pad
	.byte	0                       @   On action: cleanup
	.long	.Ltmp36-.Lfunc_begin3   @ >> Call Site 2 <<
	.long	.Ltmp37-.Ltmp36         @   Call between .Ltmp36 and .Ltmp37
	.long	.Ltmp38-.Lfunc_begin3   @     jumps to .Ltmp38
	.byte	0                       @   On action: cleanup
	.long	.Ltmp37-.Lfunc_begin3   @ >> Call Site 3 <<
	.long	.Ltmp39-.Ltmp37         @   Call between .Ltmp37 and .Ltmp39
	.long	0                       @     has no landing pad
	.byte	0                       @   On action: cleanup
	.long	.Ltmp39-.Lfunc_begin3   @ >> Call Site 4 <<
	.long	.Ltmp40-.Ltmp39         @   Call between .Ltmp39 and .Ltmp40
	.long	.Ltmp41-.Lfunc_begin3   @     jumps to .Ltmp41
	.byte	0                       @   On action: cleanup
	.long	.Ltmp40-.Lfunc_begin3   @ >> Call Site 5 <<
	.long	.Lfunc_end3-.Ltmp40     @   Call between .Ltmp40 and .Lfunc_end3
	.long	0                       @     has no landing pad
	.byte	0                       @   On action: cleanup
	.p2align	2
	.fnend

	.globl	_Z11process_fftRKSt6vectorIfSaIfEEj
	.p2align	2
	.type	_Z11process_fftRKSt6vectorIfSaIfEEj,%function
_Z11process_fftRKSt6vectorIfSaIfEEj:    @ @_Z11process_fftRKSt6vectorIfSaIfEEj
.Lfunc_begin4:
	.loc	11 70 0                 @ /root/Bela/projects/fft-circular-buffer-peaks/render.cpp:70:0
	.fnstart
	.cfi_startproc
@ BB#0:
	.save	{r4, r5, r6, r7, r8, r9, r10, r11, lr}
	push	{r4, r5, r6, r7, r8, r9, r10, r11, lr}
.Ltmp129:
	.cfi_def_cfa_offset 36
.Ltmp130:
	.cfi_offset lr, -4
.Ltmp131:
	.cfi_offset r11, -8
.Ltmp132:
	.cfi_offset r10, -12
.Ltmp133:
	.cfi_offset r9, -16
.Ltmp134:
	.cfi_offset r8, -20
.Ltmp135:
	.cfi_offset r7, -24
.Ltmp136:
	.cfi_offset r6, -28
.Ltmp137:
	.cfi_offset r5, -32
.Ltmp138:
	.cfi_offset r4, -36
	.setfp	r11, sp, #28
	add	r11, sp, #28
.Ltmp139:
	.cfi_def_cfa r11, 8
	.pad	#4
	sub	sp, sp, #4
	.vsave	{d10, d11}
	vpush	{d10, d11}
	.vsave	{d8}
	vpush	{d8}
.Ltmp140:
	.cfi_offset d11, -48
.Ltmp141:
	.cfi_offset d10, -56
.Ltmp142:
	.cfi_offset d8, -64
	.pad	#8
	sub	sp, sp, #8
	@DEBUG_VALUE: process_fft:buffer <- %R0
	@DEBUG_VALUE: process_fft:starting_loc <- %R1
.Ltmp143:
	.loc	11 71 2 prologue_end    @ /root/Bela/projects/fft-circular-buffer-peaks/render.cpp:71:2
	movw	r10, :lower16:.L_MergedGlobals.2
	mov	r5, r0
.Ltmp144:
	@DEBUG_VALUE: process_fft:buffer <- %R5
	movt	r10, :upper16:.L_MergedGlobals.2
	mov	r8, r1
.Ltmp145:
	@DEBUG_VALUE: process_fft:starting_loc <- %R8
	ldrb	r0, [r10]
	dmb	ish
	tst	r0, #1
	bne	.LBB4_4
.Ltmp146:
@ BB#1:
	@DEBUG_VALUE: process_fft:starting_loc <- %R8
	@DEBUG_VALUE: process_fft:buffer <- %R5
	.loc	11 71 2 is_stmt 0 discriminator 1 @ /root/Bela/projects/fft-circular-buffer-peaks/render.cpp:71:2
	movw	r4, :lower16:.L_MergedGlobals.2
	movt	r4, :upper16:.L_MergedGlobals.2
	mov	r0, r4
	bl	__cxa_guard_acquire
	cmp	r0, #0
	beq	.LBB4_4
.Ltmp147:
@ BB#2:
	@DEBUG_VALUE: process_fft:starting_loc <- %R8
	@DEBUG_VALUE: process_fft:buffer <- %R5
	@DEBUG_VALUE: vector:__n <- 512
	@DEBUG_VALUE: _Vector_base:__n <- 512
	mov	r0, #0
.Ltmp148:
	@DEBUG_VALUE: allocate:__n <- 512
	@DEBUG_VALUE: allocate:__n <- 512
	@DEBUG_VALUE: _M_allocate:__n <- 512
	@DEBUG_VALUE: _M_create_storage:__n <- 512
	.loc	9 91 25 is_stmt 1       @ /usr/bin/../lib/gcc/arm-linux-gnueabihf/6.3.0/../../../../include/c++/6.3.0/bits/stl_vector.h:91:25
	str	r0, [r4, #12]
	.loc	9 91 37 is_stmt 0       @ /usr/bin/../lib/gcc/arm-linux-gnueabihf/6.3.0/../../../../include/c++/6.3.0/bits/stl_vector.h:91:37
	str	r0, [r4, #16]
	.loc	9 91 50                 @ /usr/bin/../lib/gcc/arm-linux-gnueabihf/6.3.0/../../../../include/c++/6.3.0/bits/stl_vector.h:91:50
	str	r0, [r4, #20]
.Ltmp149:
	.loc	5 104 27 is_stmt 1      @ /usr/bin/../lib/gcc/arm-linux-gnueabihf/6.3.0/../../../../include/c++/6.3.0/ext/new_allocator.h:104:27
.Ltmp120:
	mov	r0, #2048
	bl	_Znwj
.Ltmp121:
.Ltmp150:
@ BB#3:
	@DEBUG_VALUE: process_fft:starting_loc <- %R8
	@DEBUG_VALUE: process_fft:buffer <- %R5
	.loc	9 185 25                @ /usr/bin/../lib/gcc/arm-linux-gnueabihf/6.3.0/../../../../include/c++/6.3.0/bits/stl_vector.h:185:25
	mov	r7, r4
.Ltmp151:
	.file	51 "/usr/bin/../lib/gcc/arm-linux-gnueabihf/6.3.0/../../../../include/c++/6.3.0/bits" "stl_algobase.h"
	.loc	51 754 11               @ /usr/bin/../lib/gcc/arm-linux-gnueabihf/6.3.0/../../../../include/c++/6.3.0/bits/stl_algobase.h:754:11
	mov	r1, #0
	mov	r2, #2048
.Ltmp152:
	.loc	9 185 25                @ /usr/bin/../lib/gcc/arm-linux-gnueabihf/6.3.0/../../../../include/c++/6.3.0/bits/stl_vector.h:185:25
	str	r0, [r7, #12]!
.Ltmp153:
	@DEBUG_VALUE: _M_default_initialize:this <- %R7
	@DEBUG_VALUE: vector:this <- %R7
	.loc	9 187 59                @ /usr/bin/../lib/gcc/arm-linux-gnueabihf/6.3.0/../../../../include/c++/6.3.0/bits/stl_vector.h:187:59
	add	r6, r0, #2048
	.loc	9 187 34 is_stmt 0      @ /usr/bin/../lib/gcc/arm-linux-gnueabihf/6.3.0/../../../../include/c++/6.3.0/bits/stl_vector.h:187:34
	str	r6, [r4, #20]
.Ltmp154:
	@DEBUG_VALUE: __niter <- 512
	@DEBUG_VALUE: __fill_n_a<float *, unsigned int, float>:__n <- 512
	@DEBUG_VALUE: fill_n<float *, unsigned int, float>:__n <- 512
	@DEBUG_VALUE: __uninit_default_n<float *, unsigned int>:__n <- 512
	@DEBUG_VALUE: __uninitialized_default_n<float *, unsigned int>:__assignable <- 1
	@DEBUG_VALUE: __uninitialized_default_n<float *, unsigned int>:__n <- 512
	@DEBUG_VALUE: __uninitialized_default_n_a<float *, unsigned int, float>:__n <- 512
	@DEBUG_VALUE: _M_default_initialize:__n <- 512
	.loc	51 754 11 is_stmt 1     @ /usr/bin/../lib/gcc/arm-linux-gnueabihf/6.3.0/../../../../include/c++/6.3.0/bits/stl_algobase.h:754:11
	bl	memset
.Ltmp155:
	.loc	11 71 2 discriminator 8 @ /root/Bela/projects/fft-circular-buffer-peaks/render.cpp:71:2
	movw	r0, :lower16:_ZNSt6vectorIfSaIfEED2Ev
	movw	r2, :lower16:__dso_handle
	movt	r0, :upper16:_ZNSt6vectorIfSaIfEED2Ev
	movt	r2, :upper16:__dso_handle
	mov	r1, r7
.Ltmp156:
	.loc	9 1308 26               @ /usr/bin/../lib/gcc/arm-linux-gnueabihf/6.3.0/../../../../include/c++/6.3.0/bits/stl_vector.h:1308:26
	str	r6, [r4, #16]
.Ltmp157:
	.loc	11 71 2 discriminator 8 @ /root/Bela/projects/fft-circular-buffer-peaks/render.cpp:71:2
	bl	__cxa_atexit
	.loc	11 71 2 is_stmt 0 discriminator 9 @ /root/Bela/projects/fft-circular-buffer-peaks/render.cpp:71:2
	mov	r0, r4
	bl	__cxa_guard_release
.Ltmp158:
.LBB4_4:
	@DEBUG_VALUE: process_fft:starting_loc <- %R8
	@DEBUG_VALUE: process_fft:buffer <- %R5
	.loc	11 72 2 is_stmt 1       @ /root/Bela/projects/fft-circular-buffer-peaks/render.cpp:72:2
	ldrb	r0, [r10, #4]
	dmb	ish
	tst	r0, #1
	bne	.LBB4_8
.Ltmp159:
@ BB#5:
	@DEBUG_VALUE: process_fft:starting_loc <- %R8
	@DEBUG_VALUE: process_fft:buffer <- %R5
	.loc	11 72 2 is_stmt 0 discriminator 1 @ /root/Bela/projects/fft-circular-buffer-peaks/render.cpp:72:2
	add	r7, r10, #4
	mov	r0, r7
	bl	__cxa_guard_acquire
	cmp	r0, #0
	beq	.LBB4_8
.Ltmp160:
@ BB#6:
	@DEBUG_VALUE: process_fft:starting_loc <- %R8
	@DEBUG_VALUE: process_fft:buffer <- %R5
	@DEBUG_VALUE: vector:__n <- 1024
	@DEBUG_VALUE: _Vector_base:__n <- 1024
	mov	r0, #0
.Ltmp161:
	@DEBUG_VALUE: allocate:__n <- 1024
	@DEBUG_VALUE: allocate:__n <- 1024
	@DEBUG_VALUE: _M_allocate:__n <- 1024
	@DEBUG_VALUE: _M_create_storage:__n <- 1024
	.loc	9 91 25 is_stmt 1       @ /usr/bin/../lib/gcc/arm-linux-gnueabihf/6.3.0/../../../../include/c++/6.3.0/bits/stl_vector.h:91:25
	str	r0, [r10, #24]
	.loc	9 91 37 is_stmt 0       @ /usr/bin/../lib/gcc/arm-linux-gnueabihf/6.3.0/../../../../include/c++/6.3.0/bits/stl_vector.h:91:37
	str	r0, [r10, #28]
	.loc	9 91 50                 @ /usr/bin/../lib/gcc/arm-linux-gnueabihf/6.3.0/../../../../include/c++/6.3.0/bits/stl_vector.h:91:50
	str	r0, [r10, #32]
.Ltmp162:
	.loc	5 104 27 is_stmt 1      @ /usr/bin/../lib/gcc/arm-linux-gnueabihf/6.3.0/../../../../include/c++/6.3.0/ext/new_allocator.h:104:27
.Ltmp123:
	mov	r0, #4096
	bl	_Znwj
.Ltmp124:
.Ltmp163:
@ BB#7:
	@DEBUG_VALUE: process_fft:starting_loc <- %R8
	@DEBUG_VALUE: process_fft:buffer <- %R5
	.loc	9 185 25                @ /usr/bin/../lib/gcc/arm-linux-gnueabihf/6.3.0/../../../../include/c++/6.3.0/bits/stl_vector.h:185:25
	mov	r4, r10
.Ltmp164:
	.loc	51 754 11               @ /usr/bin/../lib/gcc/arm-linux-gnueabihf/6.3.0/../../../../include/c++/6.3.0/bits/stl_algobase.h:754:11
	mov	r1, #0
.Ltmp165:
	.loc	9 185 25                @ /usr/bin/../lib/gcc/arm-linux-gnueabihf/6.3.0/../../../../include/c++/6.3.0/bits/stl_vector.h:185:25
	str	r0, [r4, #24]!
.Ltmp166:
	@DEBUG_VALUE: _M_default_initialize:this <- %R4
	@DEBUG_VALUE: vector:this <- %R4
	.loc	51 754 11               @ /usr/bin/../lib/gcc/arm-linux-gnueabihf/6.3.0/../../../../include/c++/6.3.0/bits/stl_algobase.h:754:11
	mov	r2, #4096
.Ltmp167:
	.loc	9 187 59                @ /usr/bin/../lib/gcc/arm-linux-gnueabihf/6.3.0/../../../../include/c++/6.3.0/bits/stl_vector.h:187:59
	add	r6, r0, #4096
	.loc	9 187 34 is_stmt 0      @ /usr/bin/../lib/gcc/arm-linux-gnueabihf/6.3.0/../../../../include/c++/6.3.0/bits/stl_vector.h:187:34
	str	r6, [r4, #8]
.Ltmp168:
	@DEBUG_VALUE: __niter <- 1024
	@DEBUG_VALUE: __fill_n_a<float *, unsigned int, float>:__n <- 1024
	@DEBUG_VALUE: fill_n<float *, unsigned int, float>:__n <- 1024
	@DEBUG_VALUE: __uninit_default_n<float *, unsigned int>:__n <- 1024
	@DEBUG_VALUE: __uninitialized_default_n<float *, unsigned int>:__assignable <- 1
	@DEBUG_VALUE: __uninitialized_default_n<float *, unsigned int>:__n <- 1024
	@DEBUG_VALUE: __uninitialized_default_n_a<float *, unsigned int, float>:__n <- 1024
	@DEBUG_VALUE: _M_default_initialize:__n <- 1024
	.loc	51 754 11 is_stmt 1     @ /usr/bin/../lib/gcc/arm-linux-gnueabihf/6.3.0/../../../../include/c++/6.3.0/bits/stl_algobase.h:754:11
	bl	memset
.Ltmp169:
	.loc	11 72 2 discriminator 7 @ /root/Bela/projects/fft-circular-buffer-peaks/render.cpp:72:2
	movw	r0, :lower16:_ZNSt6vectorIfSaIfEED2Ev
	movw	r2, :lower16:__dso_handle
	movt	r0, :upper16:_ZNSt6vectorIfSaIfEED2Ev
	movt	r2, :upper16:__dso_handle
	mov	r1, r4
.Ltmp170:
	.loc	9 1308 26               @ /usr/bin/../lib/gcc/arm-linux-gnueabihf/6.3.0/../../../../include/c++/6.3.0/bits/stl_vector.h:1308:26
	str	r6, [r4, #4]
.Ltmp171:
	.loc	11 72 2 discriminator 7 @ /root/Bela/projects/fft-circular-buffer-peaks/render.cpp:72:2
	bl	__cxa_atexit
	.loc	11 72 2 is_stmt 0 discriminator 8 @ /root/Bela/projects/fft-circular-buffer-peaks/render.cpp:72:2
	sub	r0, r4, #20
	bl	__cxa_guard_release
.Ltmp172:
.LBB4_8:
	@DEBUG_VALUE: process_fft:starting_loc <- %R8
	@DEBUG_VALUE: process_fft:buffer <- %R5
	@DEBUG_VALUE: process_fft:decayRate <- 9.800000e-01
	.loc	11 74 2 is_stmt 1       @ /root/Bela/projects/fft-circular-buffer-peaks/render.cpp:74:2
	ldrb	r0, [r10, #8]
	dmb	ish
	tst	r0, #1
	bne	.LBB4_12
.Ltmp173:
@ BB#9:
	@DEBUG_VALUE: process_fft:starting_loc <- %R8
	@DEBUG_VALUE: process_fft:buffer <- %R5
	.loc	11 74 2 is_stmt 0 discriminator 1 @ /root/Bela/projects/fft-circular-buffer-peaks/render.cpp:74:2
	add	r7, r10, #8
	mov	r0, r7
	bl	__cxa_guard_acquire
	cmp	r0, #0
	beq	.LBB4_12
.Ltmp174:
@ BB#10:
	@DEBUG_VALUE: process_fft:starting_loc <- %R8
	@DEBUG_VALUE: process_fft:buffer <- %R5
	@DEBUG_VALUE: vector:__n <- 512
	@DEBUG_VALUE: _Vector_base:__n <- 512
	mov	r0, #0
.Ltmp175:
	@DEBUG_VALUE: allocate:__n <- 512
	@DEBUG_VALUE: allocate:__n <- 512
	@DEBUG_VALUE: _M_allocate:__n <- 512
	@DEBUG_VALUE: _M_create_storage:__n <- 512
	.loc	9 91 25 is_stmt 1       @ /usr/bin/../lib/gcc/arm-linux-gnueabihf/6.3.0/../../../../include/c++/6.3.0/bits/stl_vector.h:91:25
	str	r0, [r10, #36]
	.loc	9 91 37 is_stmt 0       @ /usr/bin/../lib/gcc/arm-linux-gnueabihf/6.3.0/../../../../include/c++/6.3.0/bits/stl_vector.h:91:37
	str	r0, [r10, #40]
	.loc	9 91 50                 @ /usr/bin/../lib/gcc/arm-linux-gnueabihf/6.3.0/../../../../include/c++/6.3.0/bits/stl_vector.h:91:50
	str	r0, [r10, #44]
.Ltmp176:
	.loc	5 104 27 is_stmt 1      @ /usr/bin/../lib/gcc/arm-linux-gnueabihf/6.3.0/../../../../include/c++/6.3.0/ext/new_allocator.h:104:27
.Ltmp126:
	mov	r0, #2048
	bl	_Znwj
.Ltmp127:
.Ltmp177:
@ BB#11:
	@DEBUG_VALUE: process_fft:starting_loc <- %R8
	@DEBUG_VALUE: process_fft:buffer <- %R5
	.loc	9 185 25                @ /usr/bin/../lib/gcc/arm-linux-gnueabihf/6.3.0/../../../../include/c++/6.3.0/bits/stl_vector.h:185:25
	mov	r4, r10
.Ltmp178:
	.loc	51 754 11               @ /usr/bin/../lib/gcc/arm-linux-gnueabihf/6.3.0/../../../../include/c++/6.3.0/bits/stl_algobase.h:754:11
	mov	r1, #0
.Ltmp179:
	.loc	9 185 25                @ /usr/bin/../lib/gcc/arm-linux-gnueabihf/6.3.0/../../../../include/c++/6.3.0/bits/stl_vector.h:185:25
	str	r0, [r4, #36]!
.Ltmp180:
	@DEBUG_VALUE: _M_default_initialize:this <- %R4
	@DEBUG_VALUE: vector:this <- %R4
	.loc	51 754 11               @ /usr/bin/../lib/gcc/arm-linux-gnueabihf/6.3.0/../../../../include/c++/6.3.0/bits/stl_algobase.h:754:11
	mov	r2, #2048
.Ltmp181:
	.loc	9 187 59                @ /usr/bin/../lib/gcc/arm-linux-gnueabihf/6.3.0/../../../../include/c++/6.3.0/bits/stl_vector.h:187:59
	add	r6, r0, #2048
	.loc	9 187 34 is_stmt 0      @ /usr/bin/../lib/gcc/arm-linux-gnueabihf/6.3.0/../../../../include/c++/6.3.0/bits/stl_vector.h:187:34
	str	r6, [r4, #8]
.Ltmp182:
	@DEBUG_VALUE: __niter <- 512
	@DEBUG_VALUE: __fill_n_a<float *, unsigned int, float>:__n <- 512
	@DEBUG_VALUE: fill_n<float *, unsigned int, float>:__n <- 512
	@DEBUG_VALUE: __uninit_default_n<float *, unsigned int>:__n <- 512
	@DEBUG_VALUE: __uninitialized_default_n<float *, unsigned int>:__assignable <- 1
	@DEBUG_VALUE: __uninitialized_default_n<float *, unsigned int>:__n <- 512
	@DEBUG_VALUE: __uninitialized_default_n_a<float *, unsigned int, float>:__n <- 512
	@DEBUG_VALUE: _M_default_initialize:__n <- 512
	.loc	51 754 11 is_stmt 1     @ /usr/bin/../lib/gcc/arm-linux-gnueabihf/6.3.0/../../../../include/c++/6.3.0/bits/stl_algobase.h:754:11
	bl	memset
.Ltmp183:
	.loc	11 74 2 discriminator 7 @ /root/Bela/projects/fft-circular-buffer-peaks/render.cpp:74:2
	movw	r0, :lower16:_ZNSt6vectorIfSaIfEED2Ev
	movw	r2, :lower16:__dso_handle
	movt	r0, :upper16:_ZNSt6vectorIfSaIfEED2Ev
	movt	r2, :upper16:__dso_handle
	mov	r1, r4
.Ltmp184:
	.loc	9 1308 26               @ /usr/bin/../lib/gcc/arm-linux-gnueabihf/6.3.0/../../../../include/c++/6.3.0/bits/stl_vector.h:1308:26
	str	r6, [r4, #4]
.Ltmp185:
	.loc	11 74 2 discriminator 7 @ /root/Bela/projects/fft-circular-buffer-peaks/render.cpp:74:2
	bl	__cxa_atexit
	.loc	11 74 2 is_stmt 0 discriminator 8 @ /root/Bela/projects/fft-circular-buffer-peaks/render.cpp:74:2
	sub	r0, r4, #28
	bl	__cxa_guard_release
.Ltmp186:
.LBB4_12:                               @ %.preheader
	@DEBUG_VALUE: process_fft:starting_loc <- %R8
	@DEBUG_VALUE: process_fft:buffer <- %R5
	.loc	9 796 32 is_stmt 1      @ /usr/bin/../lib/gcc/arm-linux-gnueabihf/6.3.0/../../../../include/c++/6.3.0/bits/stl_vector.h:796:32
	ldr	r0, [r5]
.Ltmp187:
	.loc	11 85 43                @ /root/Bela/projects/fft-circular-buffer-peaks/render.cpp:85:43
	add	r1, r8, #15360
.Ltmp188:
	.loc	9 781 32                @ /usr/bin/../lib/gcc/arm-linux-gnueabihf/6.3.0/../../../../include/c++/6.3.0/bits/stl_vector.h:781:32
	ldr	r2, [r10, #24]
	mov	r3, #0
.Ltmp189:
.LBB4_13:                               @ =>This Inner Loop Header: Depth=1
	.loc	11 85 57                @ /root/Bela/projects/fft-circular-buffer-peaks/render.cpp:85:57
	add	r7, r1, r3
.Ltmp190:
	@DEBUG_VALUE: operator[]:__n <- %R3
	.loc	11 85 72 is_stmt 0      @ /root/Bela/projects/fft-circular-buffer-peaks/render.cpp:85:72
	bfc	r7, #14, #18
.Ltmp191:
	@DEBUG_VALUE: circularBufferIndex <- %R7
	@DEBUG_VALUE: operator[]:__n <- %R7
	.loc	11 86 24 is_stmt 1      @ /root/Bela/projects/fft-circular-buffer-peaks/render.cpp:86:24
	ldr	r7, [r0, r7, lsl #2]
.Ltmp192:
	.loc	11 86 22 is_stmt 0      @ /root/Bela/projects/fft-circular-buffer-peaks/render.cpp:86:22
	str	r7, [r2, r3, lsl #2]
.Ltmp193:
	.loc	11 82 32 is_stmt 1 discriminator 3 @ /root/Bela/projects/fft-circular-buffer-peaks/render.cpp:82:32
	add	r3, r3, #1
.Ltmp194:
	@DEBUG_VALUE: n <- %R3
	.loc	11 82 2 is_stmt 0 discriminator 1 @ /root/Bela/projects/fft-circular-buffer-peaks/render.cpp:82:2
	cmp	r3, #1024
	bne	.LBB4_13
.Ltmp195:
@ BB#14:
	@DEBUG_VALUE: n <- %R3
	.loc	11 93 7 is_stmt 1       @ /root/Bela/projects/fft-circular-buffer-peaks/render.cpp:93:7
	movw	r0, :lower16:.L_MergedGlobals
	add	r1, r10, #24
.Ltmp196:
	@DEBUG_VALUE: operator[]:this <- %R1
	movt	r0, :upper16:.L_MergedGlobals
	add	r0, r0, #20
	bl	_ZN3Fft3fftERKSt6vectorIfSaIfEE
.Ltmp197:
	.loc	11 105 14               @ /root/Bela/projects/fft-circular-buffer-peaks/render.cpp:105:14
	vmov.i32	q5, #0x1
.Ltmp198:
	.loc	11 110 17               @ /root/Bela/projects/fft-circular-buffer-peaks/render.cpp:110:17
	vldr	s16, .LCPI4_0
	mov	r5, #0
	mvn	r7, #4
	mvn	r9, #5
.Ltmp199:
	@DEBUG_VALUE: n <- 0
.LBB4_15:                               @ =>This Loop Header: Depth=1
                                        @     Child Loop BB4_20 Depth 2
                                        @     Child Loop BB4_24 Depth 2
	@DEBUG_VALUE: fdr:n <- %R5
	.loc	11 93 7                 @ /root/Bela/projects/fft-circular-buffer-peaks/render.cpp:93:7
	movw	r0, :lower16:.L_MergedGlobals
	movt	r0, :upper16:.L_MergedGlobals
.Ltmp200:
	.loc	2 30 38                 @ ./libraries/Fft/Fft.h:30:38
	ldr	r0, [r0, #24]
	.loc	2 30 57 is_stmt 0       @ ./libraries/Fft/Fft.h:30:57
	add	r0, r0, r5, lsl #3
.Ltmp201:
	.loc	2 39 52 is_stmt 1       @ ./libraries/Fft/Fft.h:39:52
	vldr	s0, [r0]
	.loc	2 39 70 is_stmt 0       @ ./libraries/Fft/Fft.h:39:70
	vldr	s2, [r0, #4]
	.loc	2 39 59                 @ ./libraries/Fft/Fft.h:39:59
	vmul.f32	d16, d0, d0
	.loc	2 39 77                 @ ./libraries/Fft/Fft.h:39:77
	vmul.f32	d17, d1, d1
	.loc	2 39 68                 @ ./libraries/Fft/Fft.h:39:68
	vadd.f32	d0, d17, d16
	.loc	2 39 37 discriminator 4 @ ./libraries/Fft/Fft.h:39:37
                                        @ kill: %S0<def> %S0<kill> %D0<kill>
	bl	sqrtf_neon_hfp
.Ltmp202:
	.loc	9 781 32 is_stmt 1      @ /usr/bin/../lib/gcc/arm-linux-gnueabihf/6.3.0/../../../../include/c++/6.3.0/bits/stl_vector.h:781:32
	ldr	r3, [r10, #12]
.Ltmp203:
	.loc	2 30 38                 @ ./libraries/Fft/Fft.h:30:38
	sub	r6, r5, #5
	cmp	r6, #0
	mov	r1, #0
.Ltmp204:
	.loc	9 781 41                @ /usr/bin/../lib/gcc/arm-linux-gnueabihf/6.3.0/../../../../include/c++/6.3.0/bits/stl_vector.h:781:41
	add	r0, r3, r5, lsl #2
.Ltmp205:
	.loc	2 30 38                 @ ./libraries/Fft/Fft.h:30:38
	movgt	r1, r6
.Ltmp206:
	@DEBUG_VALUE: k <- %R1
	mvn	r4, #512
.Ltmp207:
	.loc	11 98 20                @ /root/Bela/projects/fft-circular-buffer-peaks/render.cpp:98:20
	vstr	s0, [r0]
.Ltmp208:
	.loc	2 30 38                 @ ./libraries/Fft/Fft.h:30:38
	add	r0, r5, #5
	cmp	r0, #512
	mov	r2, r0
	movge	r2, #512
	cmp	r6, r2
	movgt	r2, r6
	cmp	r7, #0
	mov	r6, #0
	movgt	r6, r7
	cmp	r9, r4
	mvn	r4, #512
	movgt	r4, r9
	mvn	r8, r4
	cmp	r7, r8
	movgt	r8, r7
.Ltmp209:
	.loc	11 103 40 discriminator 1 @ /root/Bela/projects/fft-circular-buffer-peaks/render.cpp:103:40
	cmp	r0, #512
.Ltmp210:
	@DEBUG_VALUE: dataPoints <- 0
	@DEBUG_VALUE: localAvg <- 0.000000e+00
	movwgt	r0, #512
	.loc	11 103 3 is_stmt 0 discriminator 1 @ /root/Bela/projects/fft-circular-buffer-peaks/render.cpp:103:3
	cmp	r1, r0
	ble	.LBB4_17
.Ltmp211:
@ BB#16:                                @   in Loop: Header=BB4_15 Depth=1
	@DEBUG_VALUE: k <- %R1
	@DEBUG_VALUE: fdr:n <- %R5
	vmov.i32	d0, #0x0
	mov	r2, #0
	b	.LBB4_25
.Ltmp212:
.LBB4_17:                               @ %.lr.ph.preheader
                                        @   in Loop: Header=BB4_15 Depth=1
	@DEBUG_VALUE: k <- %R1
	@DEBUG_VALUE: fdr:n <- %R5
	.loc	2 30 38 is_stmt 1       @ ./libraries/Fft/Fft.h:30:38
	add	r2, r2, #1
	sub	lr, r2, r1
	mov	r2, #0
.Ltmp213:
	.loc	9 0 0                   @ /usr/bin/../lib/gcc/arm-linux-gnueabihf/6.3.0/../../../../include/c++/6.3.0/bits/stl_vector.h:0:0
	cmp	lr, #3
	bls	.LBB4_22
.Ltmp214:
@ BB#18:                                @ %min.iters.checked
                                        @   in Loop: Header=BB4_15 Depth=1
	@DEBUG_VALUE: k <- %R1
	@DEBUG_VALUE: fdr:n <- %R5
	mov	r12, lr
	bfc	r12, #0, #2
	cmp	r12, #0
	beq	.LBB4_22
.Ltmp215:
@ BB#19:                                @ %vector.body.preheader
                                        @   in Loop: Header=BB4_15 Depth=1
	@DEBUG_VALUE: k <- %R1
	@DEBUG_VALUE: fdr:n <- %R5
	.loc	2 30 38                 @ ./libraries/Fft/Fft.h:30:38
	add	r2, r8, #1
	vmov.i32	q9, #0x0
	sub	r2, r2, r6
	vmov.i32	q8, #0x0
.Ltmp216:
	.loc	9 0 0                   @ /usr/bin/../lib/gcc/arm-linux-gnueabihf/6.3.0/../../../../include/c++/6.3.0/bits/stl_vector.h:0:0
	add	r1, r1, r12
.Ltmp217:
	add	r6, r3, r6, lsl #2
.Ltmp218:
	.loc	2 30 38                 @ ./libraries/Fft/Fft.h:30:38
	bfc	r2, #0, #2
.Ltmp219:
.LBB4_20:                               @ %vector.body
                                        @   Parent Loop BB4_15 Depth=1
                                        @ =>  This Inner Loop Header: Depth=2
	.loc	11 104 16               @ /root/Bela/projects/fft-circular-buffer-peaks/render.cpp:104:16
	vld1.32	{d20, d21}, [r6]!
	.loc	11 105 14               @ /root/Bela/projects/fft-circular-buffer-peaks/render.cpp:105:14
	vadd.i32	q9, q9, q5
	.loc	11 104 13               @ /root/Bela/projects/fft-circular-buffer-peaks/render.cpp:104:13
	vadd.f32	q8, q10, q8
.Ltmp220:
	.loc	9 0 0                   @ /usr/bin/../lib/gcc/arm-linux-gnueabihf/6.3.0/../../../../include/c++/6.3.0/bits/stl_vector.h:0:0
	subs	r2, r2, #4
	bne	.LBB4_20
.Ltmp221:
@ BB#21:                                @ %middle.block
                                        @   in Loop: Header=BB4_15 Depth=1
	.loc	11 105 14               @ /root/Bela/projects/fft-circular-buffer-peaks/render.cpp:105:14
	vext.32	q10, q9, q8, #2
.Ltmp222:
	.loc	9 0 0                   @ /usr/bin/../lib/gcc/arm-linux-gnueabihf/6.3.0/../../../../include/c++/6.3.0/bits/stl_vector.h:0:0
	cmp	lr, r12
.Ltmp223:
	.loc	11 105 14               @ /root/Bela/projects/fft-circular-buffer-peaks/render.cpp:105:14
	vadd.i32	q9, q9, q10
	vdup.32	q10, d18[1]
	vadd.i32	q9, q9, q10
	vmov.32	r2, d18[0]
	.loc	11 104 13               @ /root/Bela/projects/fft-circular-buffer-peaks/render.cpp:104:13
	vext.32	q9, q8, q8, #2
	vadd.f32	q8, q8, q9
	vdup.32	q9, d16[1]
	vadd.f32	q0, q8, q9
	bne	.LBB4_23
	b	.LBB4_25
.LBB4_22:                               @   in Loop: Header=BB4_15 Depth=1
.Ltmp224:
	@DEBUG_VALUE: k <- %R1
	@DEBUG_VALUE: fdr:n <- %R5
	vmov.i32	d0, #0x0
.Ltmp225:
.LBB4_23:                               @ %.lr.ph.preheader107
                                        @   in Loop: Header=BB4_15 Depth=1
	.loc	9 0 0                   @ /usr/bin/../lib/gcc/arm-linux-gnueabihf/6.3.0/../../../../include/c++/6.3.0/bits/stl_vector.h:0:0
	add	r6, r3, r1, lsl #2
	sub	r1, r1, #1
.Ltmp226:
.LBB4_24:                               @ %.lr.ph
                                        @   Parent Loop BB4_15 Depth=1
                                        @ =>  This Inner Loop Header: Depth=2
	.loc	11 104 16               @ /root/Bela/projects/fft-circular-buffer-peaks/render.cpp:104:16
	vldmia	r6!, {s4}
.Ltmp227:
	.loc	11 103 37 discriminator 1 @ /root/Bela/projects/fft-circular-buffer-peaks/render.cpp:103:37
	add	r1, r1, #1
.Ltmp228:
	.loc	11 104 13               @ /root/Bela/projects/fft-circular-buffer-peaks/render.cpp:104:13
	vadd.f32	d0, d2, d0
	.loc	11 105 14               @ /root/Bela/projects/fft-circular-buffer-peaks/render.cpp:105:14
	add	r2, r2, #1
.Ltmp229:
	@DEBUG_VALUE: dataPoints <- %R2
	@DEBUG_VALUE: localAvg <- %S0
	.loc	11 103 3 discriminator 1 @ /root/Bela/projects/fft-circular-buffer-peaks/render.cpp:103:3
	cmp	r1, r0
	blt	.LBB4_24
.Ltmp230:
.LBB4_25:                               @ %._crit_edge
                                        @   in Loop: Header=BB4_15 Depth=1
	.loc	11 108 22               @ /root/Bela/projects/fft-circular-buffer-peaks/render.cpp:108:22
	vmov	s4, r2
.Ltmp231:
	.loc	9 781 32                @ /usr/bin/../lib/gcc/arm-linux-gnueabihf/6.3.0/../../../../include/c++/6.3.0/bits/stl_vector.h:781:32
	ldr	r0, [r10, #36]
.Ltmp232:
	.loc	11 108 22               @ /root/Bela/projects/fft-circular-buffer-peaks/render.cpp:108:22
	vcvt.f32.s32	d2, d2
.Ltmp233:
	.loc	11 97 2 discriminator 1 @ /root/Bela/projects/fft-circular-buffer-peaks/render.cpp:97:2
	sub	r9, r9, #1
.Ltmp234:
	.loc	9 781 41                @ /usr/bin/../lib/gcc/arm-linux-gnueabihf/6.3.0/../../../../include/c++/6.3.0/bits/stl_vector.h:781:41
	add	r0, r0, r5, lsl #2
.Ltmp235:
	.loc	11 97 36 discriminator 3 @ /root/Bela/projects/fft-circular-buffer-peaks/render.cpp:97:36
	add	r5, r5, #1
.Ltmp236:
	@DEBUG_VALUE: n <- %R5
	.loc	11 97 2 is_stmt 0 discriminator 1 @ /root/Bela/projects/fft-circular-buffer-peaks/render.cpp:97:2
	add	r7, r7, #1
	cmp	r5, #512
.Ltmp237:
	.loc	11 108 12 is_stmt 1     @ /root/Bela/projects/fft-circular-buffer-peaks/render.cpp:108:12
	vdiv.f32	s0, s0, s4
.Ltmp238:
	@DEBUG_VALUE: localAvg <- %S0
	.loc	11 110 17               @ /root/Bela/projects/fft-circular-buffer-peaks/render.cpp:110:17
	vldr	s2, [r0]
	vmul.f32	d16, d1, d8
	.loc	11 111 6                @ /root/Bela/projects/fft-circular-buffer-peaks/render.cpp:111:6
	vmax.f32	d0, d0, d16
.Ltmp239:
	.loc	11 110 17               @ /root/Bela/projects/fft-circular-buffer-peaks/render.cpp:110:17
	vstr	s0, [r0]
	bne	.LBB4_15
.Ltmp240:
@ BB#26:
	@DEBUG_VALUE: n <- %R5
	@DEBUG_VALUE: sendBuffer<float, std::allocator<float> >:bufferId <- 0
	.file	52 "/usr/bin/../lib/gcc/arm-linux-gnueabihf/6.3.0/../../../../include/c++/6.3.0" "typeinfo"
	.loc	52 100 14               @ /usr/bin/../lib/gcc/arm-linux-gnueabihf/6.3.0/../../../../include/c++/6.3.0/typeinfo:100:14
	movw	r0, :lower16:_ZTIf
.Ltmp241:
	.loc	14 155 9 discriminator 2 @ ./libraries/Gui/Gui.h:155:9
	movw	r5, :lower16:gSpectrumGui
.Ltmp242:
	.loc	52 100 14               @ /usr/bin/../lib/gcc/arm-linux-gnueabihf/6.3.0/../../../../include/c++/6.3.0/typeinfo:100:14
	movt	r0, :upper16:_ZTIf
.Ltmp243:
	.loc	14 155 9 discriminator 2 @ ./libraries/Gui/Gui.h:155:9
	movt	r5, :upper16:gSpectrumGui
.Ltmp244:
	@DEBUG_VALUE: sendBuffer<float, std::allocator<float> >:this <- %R5
	@DEBUG_VALUE: sendBuffer<float, std::allocator<float> >:this <- %R5
	.loc	52 100 14               @ /usr/bin/../lib/gcc/arm-linux-gnueabihf/6.3.0/../../../../include/c++/6.3.0/typeinfo:100:14
	ldr	r6, [r0, #4]
.Ltmp245:
	.loc	14 155 9 discriminator 2 @ ./libraries/Gui/Gui.h:155:9
	mov	r2, #0
.Ltmp246:
	.loc	9 656 40                @ /usr/bin/../lib/gcc/arm-linux-gnueabihf/6.3.0/../../../../include/c++/6.3.0/bits/stl_vector.h:656:40
	ldr	r0, [r10, #16]
.Ltmp247:
	.loc	52 100 14               @ /usr/bin/../lib/gcc/arm-linux-gnueabihf/6.3.0/../../../../include/c++/6.3.0/typeinfo:100:14
	mov	r4, r6
.Ltmp248:
	.loc	9 656 50                @ /usr/bin/../lib/gcc/arm-linux-gnueabihf/6.3.0/../../../../include/c++/6.3.0/bits/stl_vector.h:656:50
	sub	r0, r0, r3
.Ltmp249:
	.loc	52 100 14               @ /usr/bin/../lib/gcc/arm-linux-gnueabihf/6.3.0/../../../../include/c++/6.3.0/typeinfo:100:14
	ldrb	r1, [r4], #1
.Ltmp250:
	.loc	14 155 9 discriminator 2 @ ./libraries/Gui/Gui.h:155:9
	str	r0, [sp]
	mov	r0, r5
.Ltmp251:
	.loc	52 100 14               @ /usr/bin/../lib/gcc/arm-linux-gnueabihf/6.3.0/../../../../include/c++/6.3.0/typeinfo:100:14
	cmp	r1, #42
	mov	r1, r6
	moveq	r1, r4
.Ltmp252:
	@DEBUG_VALUE: sendBuffer<float, std::allocator<float> >:type <- %R1
	.loc	14 155 9 discriminator 2 @ ./libraries/Gui/Gui.h:155:9
	bl	_ZN3Gui12doSendBufferEPKcjPKvj
.Ltmp253:
	.loc	52 100 14               @ /usr/bin/../lib/gcc/arm-linux-gnueabihf/6.3.0/../../../../include/c++/6.3.0/typeinfo:100:14
	ldrb	r1, [r6]
.Ltmp254:
	.loc	14 155 9 discriminator 2 @ ./libraries/Gui/Gui.h:155:9
	mov	r2, #1
.Ltmp255:
	.loc	9 892 42                @ /usr/bin/../lib/gcc/arm-linux-gnueabihf/6.3.0/../../../../include/c++/6.3.0/bits/stl_vector.h:892:42
	ldr	r3, [r10, #36]
.Ltmp256:
	.loc	9 656 40                @ /usr/bin/../lib/gcc/arm-linux-gnueabihf/6.3.0/../../../../include/c++/6.3.0/bits/stl_vector.h:656:40
	ldr	r0, [r10, #40]
.Ltmp257:
	.loc	52 100 14               @ /usr/bin/../lib/gcc/arm-linux-gnueabihf/6.3.0/../../../../include/c++/6.3.0/typeinfo:100:14
	cmp	r1, #42
	movne	r4, r6
.Ltmp258:
	@DEBUG_VALUE: sendBuffer<float, std::allocator<float> >:type <- %R4
	.loc	9 656 50                @ /usr/bin/../lib/gcc/arm-linux-gnueabihf/6.3.0/../../../../include/c++/6.3.0/bits/stl_vector.h:656:50
	sub	r0, r0, r3
.Ltmp259:
	.loc	14 155 9 discriminator 2 @ ./libraries/Gui/Gui.h:155:9
	str	r0, [sp]
	mov	r0, r5
	mov	r1, r4
	bl	_ZN3Gui12doSendBufferEPKcjPKvj
.Ltmp260:
	@DEBUG_VALUE: sendBuffer<float, std::allocator<float> >:bufferId <- 1
	.loc	11 120 1 discriminator 3 @ /root/Bela/projects/fft-circular-buffer-peaks/render.cpp:120:1
	sub	sp, r11, #56
	vpop	{d8}
	vpop	{d10, d11}
	add	sp, sp, #4
	pop	{r4, r5, r6, r7, r8, r9, r10, r11, pc}
.Ltmp261:
.LBB4_27:
	@DEBUG_VALUE: process_fft:starting_loc <- %R8
	@DEBUG_VALUE: process_fft:buffer <- %R5
.Ltmp128:
	b	.LBB4_29
.Ltmp262:
.LBB4_28:
	@DEBUG_VALUE: process_fft:starting_loc <- %R8
	@DEBUG_VALUE: process_fft:buffer <- %R5
.Ltmp125:
.Ltmp263:
.LBB4_29:
	@DEBUG_VALUE: process_fft:starting_loc <- %R8
	@DEBUG_VALUE: process_fft:buffer <- %R5
	mov	r4, r0
	.loc	11 72 2 discriminator 10 @ /root/Bela/projects/fft-circular-buffer-peaks/render.cpp:72:2
	mov	r0, r7
	b	.LBB4_31
.Ltmp264:
.LBB4_30:
	@DEBUG_VALUE: process_fft:starting_loc <- %R8
	@DEBUG_VALUE: process_fft:buffer <- %R5
.Ltmp122:
	mov	r4, r0
	.loc	11 71 2 discriminator 11 @ /root/Bela/projects/fft-circular-buffer-peaks/render.cpp:71:2
	movw	r0, :lower16:.L_MergedGlobals.2
	movt	r0, :upper16:.L_MergedGlobals.2
.Ltmp265:
.LBB4_31:
	@DEBUG_VALUE: process_fft:starting_loc <- %R8
	@DEBUG_VALUE: process_fft:buffer <- %R5
	bl	__cxa_guard_abort
	mov	r0, r4
	mov	lr, pc
	b	_Unwind_Resume
.Ltmp266:
	.p2align	2
@ BB#32:
.LCPI4_0:
	.long	1065017672              @ float 0.980000019
.Lfunc_end4:
	.size	_Z11process_fftRKSt6vectorIfSaIfEEj, .Lfunc_end4-_Z11process_fftRKSt6vectorIfSaIfEEj
	.cfi_endproc
	.file	53 "/usr/bin/../lib/gcc/arm-linux-gnueabihf/6.3.0/../../../../include/c++/6.3.0/ext" "type_traits.h"
	.file	54 "/usr/bin/../lib/gcc/arm-linux-gnueabihf/6.3.0/../../../../include/c++/6.3.0/bits" "stl_uninitialized.h"
	.globl	__gxx_personality_v0
	.personality __gxx_personality_v0
	.handlerdata
	.p2align	2
GCC_except_table4:
.Lexception2:
	.byte	255                     @ @LPStart Encoding = omit
	.byte	0                       @ @TType Encoding = absptr
	.asciz	"\320"                  @ @TType base offset
	.byte	3                       @ Call site Encoding = udata4
	.byte	78                      @ Call site table length
	.long	.Ltmp120-.Lfunc_begin4  @ >> Call Site 1 <<
	.long	.Ltmp121-.Ltmp120       @   Call between .Ltmp120 and .Ltmp121
	.long	.Ltmp122-.Lfunc_begin4  @     jumps to .Ltmp122
	.byte	0                       @   On action: cleanup
	.long	.Ltmp121-.Lfunc_begin4  @ >> Call Site 2 <<
	.long	.Ltmp123-.Ltmp121       @   Call between .Ltmp121 and .Ltmp123
	.long	0                       @     has no landing pad
	.byte	0                       @   On action: cleanup
	.long	.Ltmp123-.Lfunc_begin4  @ >> Call Site 3 <<
	.long	.Ltmp124-.Ltmp123       @   Call between .Ltmp123 and .Ltmp124
	.long	.Ltmp125-.Lfunc_begin4  @     jumps to .Ltmp125
	.byte	0                       @   On action: cleanup
	.long	.Ltmp124-.Lfunc_begin4  @ >> Call Site 4 <<
	.long	.Ltmp126-.Ltmp124       @   Call between .Ltmp124 and .Ltmp126
	.long	0                       @     has no landing pad
	.byte	0                       @   On action: cleanup
	.long	.Ltmp126-.Lfunc_begin4  @ >> Call Site 5 <<
	.long	.Ltmp127-.Ltmp126       @   Call between .Ltmp126 and .Ltmp127
	.long	.Ltmp128-.Lfunc_begin4  @     jumps to .Ltmp128
	.byte	0                       @   On action: cleanup
	.long	.Ltmp127-.Lfunc_begin4  @ >> Call Site 6 <<
	.long	.Lfunc_end4-.Ltmp127    @   Call between .Ltmp127 and .Lfunc_end4
	.long	0                       @     has no landing pad
	.byte	0                       @   On action: cleanup
	.p2align	2
	.fnend

	.globl	render
	.p2align	2
	.type	render,%function
render:                                 @ @render
.Lfunc_begin5:
	.loc	11 123 0                @ /root/Bela/projects/fft-circular-buffer-peaks/render.cpp:123:0
	.fnstart
	.cfi_startproc
@ BB#0:
	.save	{r4, r5, r6, r7, r8, r9, r10, r11, lr}
	push	{r4, r5, r6, r7, r8, r9, r10, r11, lr}
.Ltmp267:
	.cfi_def_cfa_offset 36
.Ltmp268:
	.cfi_offset lr, -4
.Ltmp269:
	.cfi_offset r11, -8
.Ltmp270:
	.cfi_offset r10, -12
.Ltmp271:
	.cfi_offset r9, -16
.Ltmp272:
	.cfi_offset r8, -20
.Ltmp273:
	.cfi_offset r7, -24
.Ltmp274:
	.cfi_offset r6, -28
.Ltmp275:
	.cfi_offset r5, -32
.Ltmp276:
	.cfi_offset r4, -36
	.setfp	r11, sp, #28
	add	r11, sp, #28
.Ltmp277:
	.cfi_def_cfa r11, 8
	.pad	#4
	sub	sp, sp, #4
	.vsave	{d8}
	vpush	{d8}
.Ltmp278:
	.cfi_offset d8, -48
	@DEBUG_VALUE: render:context <- %R0
	@DEBUG_VALUE: render:userData <- %R1
	mov	r8, r0
.Ltmp279:
	@DEBUG_VALUE: n <- 0
	@DEBUG_VALUE: render:context <- %R8
	.loc	11 124 39 prologue_end discriminator 1 @ /root/Bela/projects/fft-circular-buffer-peaks/render.cpp:124:39
	ldr	r0, [r8, #20]
	.loc	11 124 2 is_stmt 0 discriminator 1 @ /root/Bela/projects/fft-circular-buffer-peaks/render.cpp:124:2
	cmp	r0, #0
	beq	.LBB5_13
.Ltmp280:
@ BB#1:                                 @ %.lr.ph20
	@DEBUG_VALUE: render:context <- %R8
	@DEBUG_VALUE: render:userData <- %R1
	.loc	11 126 28 is_stmt 1 discriminator 1 @ /root/Bela/projects/fft-circular-buffer-peaks/render.cpp:126:28
	movw	r9, :lower16:gPlayer
	.loc	11 131 35               @ /root/Bela/projects/fft-circular-buffer-peaks/render.cpp:131:35
	movw	r7, :lower16:.L_MergedGlobals
	.loc	11 126 28 discriminator 1 @ /root/Bela/projects/fft-circular-buffer-peaks/render.cpp:126:28
	movt	r9, :upper16:gPlayer
	.loc	11 131 35               @ /root/Bela/projects/fft-circular-buffer-peaks/render.cpp:131:35
	movt	r7, :upper16:.L_MergedGlobals
	.loc	11 132 6                @ /root/Bela/projects/fft-circular-buffer-peaks/render.cpp:132:6
	movw	r10, #16383
	mov	r5, #0
	mov	r6, #0
.Ltmp281:
.LBB5_2:                                @ =>This Loop Header: Depth=1
                                        @     Child Loop BB5_8 Depth 2
                                        @     Child Loop BB5_11 Depth 2
	.loc	11 126 28 discriminator 1 @ /root/Bela/projects/fft-circular-buffer-peaks/render.cpp:126:28
	mov	r0, r9
	bl	_ZN14MonoFilePlayer7processEv
	.loc	11 131 35               @ /root/Bela/projects/fft-circular-buffer-peaks/render.cpp:131:35
	ldr	r0, [r7]
.Ltmp282:
	@DEBUG_VALUE: operator[]:__n <- %R0
	.loc	11 126 28 discriminator 1 @ /root/Bela/projects/fft-circular-buffer-peaks/render.cpp:126:28
	vorr	d8, d0, d0
.Ltmp283:
	@DEBUG_VALUE: in <- %S16
	.loc	11 131 35               @ /root/Bela/projects/fft-circular-buffer-peaks/render.cpp:131:35
	add	r1, r0, #1
	str	r1, [r7]
.Ltmp284:
	.loc	9 781 32                @ /usr/bin/../lib/gcc/arm-linux-gnueabihf/6.3.0/../../../../include/c++/6.3.0/bits/stl_vector.h:781:32
	ldr	r2, [r7, #8]
.Ltmp285:
	.loc	11 132 6                @ /root/Bela/projects/fft-circular-buffer-peaks/render.cpp:132:6
	cmp	r0, r10
	movge	r1, #0
.Ltmp286:
	.loc	9 781 41                @ /usr/bin/../lib/gcc/arm-linux-gnueabihf/6.3.0/../../../../include/c++/6.3.0/bits/stl_vector.h:781:41
	add	r2, r2, r0, lsl #2
.Ltmp287:
	.loc	11 131 39               @ /root/Bela/projects/fft-circular-buffer-peaks/render.cpp:131:39
	vstr	s16, [r2]
.Ltmp288:
	.loc	11 133 24               @ /root/Bela/projects/fft-circular-buffer-peaks/render.cpp:133:24
	strge	r1, [r7]
.Ltmp289:
	.loc	11 139 6                @ /root/Bela/projects/fft-circular-buffer-peaks/render.cpp:139:6
	ldr	r0, [r7, #4]
.Ltmp290:
	add	r2, r0, #1
	str	r2, [r7, #4]
.Ltmp291:
	.loc	11 139 6 is_stmt 0      @ /root/Bela/projects/fft-circular-buffer-peaks/render.cpp:139:6
	cmp	r0, #255
	blt	.LBB5_4
.Ltmp292:
@ BB#3:                                 @   in Loop: Header=BB5_2 Depth=1
	@DEBUG_VALUE: in <- %S16
	mov	r0, #0
.Ltmp293:
	.loc	11 140 16 is_stmt 1     @ /root/Bela/projects/fft-circular-buffer-peaks/render.cpp:140:16
	str	r0, [r7, #4]
	.loc	11 141 4                @ /root/Bela/projects/fft-circular-buffer-peaks/render.cpp:141:4
	add	r0, r7, #8
	bl	_Z11process_fftRKSt6vectorIfSaIfEEj
.Ltmp294:
	@DEBUG_VALUE: operator[]:this <- %R0
.LBB5_4:                                @ %.preheader
                                        @   in Loop: Header=BB5_2 Depth=1
	@DEBUG_VALUE: in <- %S16
	.loc	11 145 52 discriminator 1 @ /root/Bela/projects/fft-circular-buffer-peaks/render.cpp:145:52
	ldr	r0, [r8, #28]
	.loc	11 145 3 is_stmt 0 discriminator 1 @ /root/Bela/projects/fft-circular-buffer-peaks/render.cpp:145:3
	cmp	r0, #0
	beq	.LBB5_12
.Ltmp295:
@ BB#5:                                 @ %.lr.ph
                                        @   in Loop: Header=BB5_2 Depth=1
	@DEBUG_VALUE: in <- %S16
	ldr	r1, [r8, #4]
	mov	r2, #0
	cmp	r0, #3
	bls	.LBB5_10
.Ltmp296:
@ BB#6:                                 @ %min.iters.checked
                                        @   in Loop: Header=BB5_2 Depth=1
	@DEBUG_VALUE: in <- %S16
	mov	r4, r0
	bfc	r4, #0, #2
	cmp	r4, #0
	beq	.LBB5_10
.Ltmp297:
@ BB#7:                                 @ %vector.ph
                                        @   in Loop: Header=BB5_2 Depth=1
	@DEBUG_VALUE: in <- %S16
	mla	r2, r0, r5, r1
	vdup.32	q8, d8[0]
	.loc	11 145 77 discriminator 3 @ /root/Bela/projects/fft-circular-buffer-peaks/render.cpp:145:77
	mov	r3, r4
.Ltmp298:
.LBB5_8:                                @ %vector.body
                                        @   Parent Loop BB5_2 Depth=1
                                        @ =>  This Inner Loop Header: Depth=2
	.file	55 "./include" "Bela.h"
	.loc	55 1276 65 is_stmt 1    @ ./include/Bela.h:1276:65
	vst1.32	{d16, d17}, [r2]!
.Ltmp299:
	.loc	11 145 3 discriminator 1 @ /root/Bela/projects/fft-circular-buffer-peaks/render.cpp:145:3
	subs	r3, r3, #4
	bne	.LBB5_8
@ BB#9:                                 @ %middle.block
                                        @   in Loop: Header=BB5_2 Depth=1
	mov	r2, r4
	cmp	r0, r4
	beq	.LBB5_12
.LBB5_10:                               @ %scalar.ph.preheader
                                        @   in Loop: Header=BB5_2 Depth=1
.Ltmp300:
	.loc	55 1276 54              @ ./include/Bela.h:1276:54
	mla	r3, r0, r6, r2
	add	r1, r1, r3, lsl #2
.Ltmp301:
.LBB5_11:                               @ %scalar.ph
                                        @   Parent Loop BB5_2 Depth=1
                                        @ =>  This Inner Loop Header: Depth=2
	.loc	11 145 77 discriminator 3 @ /root/Bela/projects/fft-circular-buffer-peaks/render.cpp:145:77
	add	r2, r2, #1
.Ltmp302:
	@DEBUG_VALUE: channel <- %R2
	.loc	55 1276 65              @ ./include/Bela.h:1276:65
	vstmia	r1!, {s16}
.Ltmp303:
	.loc	11 145 3 discriminator 1 @ /root/Bela/projects/fft-circular-buffer-peaks/render.cpp:145:3
	cmp	r2, r0
	blo	.LBB5_11
.Ltmp304:
.LBB5_12:                               @ %._crit_edge
                                        @   in Loop: Header=BB5_2 Depth=1
	.loc	11 124 2 discriminator 1 @ /root/Bela/projects/fft-circular-buffer-peaks/render.cpp:124:2
	add	r5, r5, #4
	.loc	11 124 53 is_stmt 0 discriminator 3 @ /root/Bela/projects/fft-circular-buffer-peaks/render.cpp:124:53
	add	r6, r6, #1
.Ltmp305:
	@DEBUG_VALUE: n <- %R6
	.loc	11 124 39 discriminator 1 @ /root/Bela/projects/fft-circular-buffer-peaks/render.cpp:124:39
	ldr	r0, [r8, #20]
	.loc	11 124 2 discriminator 1 @ /root/Bela/projects/fft-circular-buffer-peaks/render.cpp:124:2
	cmp	r6, r0
	blo	.LBB5_2
.Ltmp306:
.LBB5_13:                               @ %._crit_edge21
	.loc	11 149 1 is_stmt 1      @ /root/Bela/projects/fft-circular-buffer-peaks/render.cpp:149:1
	vpop	{d8}
	add	sp, sp, #4
	pop	{r4, r5, r6, r7, r8, r9, r10, r11, pc}
.Ltmp307:
.Lfunc_end5:
	.size	render, .Lfunc_end5-render
	.cfi_endproc
	.fnend

	.globl	cleanup
	.p2align	2
	.type	cleanup,%function
cleanup:                                @ @cleanup
.Lfunc_begin6:
	.loc	11 152 0                @ /root/Bela/projects/fft-circular-buffer-peaks/render.cpp:152:0
	.fnstart
	.cfi_startproc
@ BB#0:
	@DEBUG_VALUE: cleanup:context <- %R0
	@DEBUG_VALUE: cleanup:userData <- %R1
	.loc	11 154 1 prologue_end   @ /root/Bela/projects/fft-circular-buffer-peaks/render.cpp:154:1
	bx	lr
.Ltmp308:
.Lfunc_end6:
	.size	cleanup, .Lfunc_end6-cleanup
	.cfi_endproc
	.fnend

	.section	.text.__clang_call_terminate,"axG",%progbits,__clang_call_terminate,comdat
	.hidden	__clang_call_terminate
	.weak	__clang_call_terminate
	.p2align	2
	.type	__clang_call_terminate,%function
__clang_call_terminate:                 @ @__clang_call_terminate
.Lfunc_begin7:
	.fnstart
	.cfi_startproc
@ BB#0:
	.save	{r11, lr}
	push	{r11, lr}
.Ltmp309:
	.cfi_def_cfa_offset 8
.Ltmp310:
	.cfi_offset lr, -4
.Ltmp311:
	.cfi_offset r11, -8
	bl	__cxa_begin_catch
	mov	lr, pc
	b	_ZSt9terminatev
.Lfunc_end7:
	.size	__clang_call_terminate, .Lfunc_end7-__clang_call_terminate
	.cfi_endproc
	.cantunwind
	.fnend

	.section	.text._ZNSt6vectorIfSaIfEE17_M_default_appendEj,"axG",%progbits,_ZNSt6vectorIfSaIfEE17_M_default_appendEj,comdat
	.weak	_ZNSt6vectorIfSaIfEE17_M_default_appendEj
	.p2align	2
	.type	_ZNSt6vectorIfSaIfEE17_M_default_appendEj,%function
_ZNSt6vectorIfSaIfEE17_M_default_appendEj: @ @_ZNSt6vectorIfSaIfEE17_M_default_appendEj
.Lfunc_begin8:
	.file	56 "/usr/bin/../lib/gcc/arm-linux-gnueabihf/6.3.0/../../../../include/c++/6.3.0/bits" "vector.tcc"
	.loc	56 542 0                @ /usr/bin/../lib/gcc/arm-linux-gnueabihf/6.3.0/../../../../include/c++/6.3.0/bits/vector.tcc:542:0
	.fnstart
	.cfi_startproc
@ BB#0:
	.save	{r4, r5, r6, r7, r8, r10, r11, lr}
	push	{r4, r5, r6, r7, r8, r10, r11, lr}
.Ltmp312:
	.cfi_def_cfa_offset 32
.Ltmp313:
	.cfi_offset lr, -4
.Ltmp314:
	.cfi_offset r11, -8
.Ltmp315:
	.cfi_offset r10, -12
.Ltmp316:
	.cfi_offset r8, -16
.Ltmp317:
	.cfi_offset r7, -20
.Ltmp318:
	.cfi_offset r6, -24
.Ltmp319:
	.cfi_offset r5, -28
.Ltmp320:
	.cfi_offset r4, -32
	.setfp	r11, sp, #24
	add	r11, sp, #24
.Ltmp321:
	.cfi_def_cfa r11, 8
	@DEBUG_VALUE: _M_default_append:this <- %R0
	@DEBUG_VALUE: _M_default_append:__n <- %R1
	mov	r5, r1
.Ltmp322:
	@DEBUG_VALUE: _M_default_append:__n <- %R5
	mov	r4, r0
.Ltmp323:
	@DEBUG_VALUE: _M_default_append:this <- %R4
	.loc	56 543 11 prologue_end  @ /usr/bin/../lib/gcc/arm-linux-gnueabihf/6.3.0/../../../../include/c++/6.3.0/bits/vector.tcc:543:11
	cmp	r5, #0
	beq	.LBB8_11
.Ltmp324:
@ BB#1:
	@DEBUG_VALUE: _M_default_append:this <- %R4
	@DEBUG_VALUE: _M_default_append:__n <- %R5
	@DEBUG_VALUE: __fill_n_a<float *, unsigned int, float>:__first <- %R7
	@DEBUG_VALUE: fill_n<float *, unsigned int, float>:__first <- %R7
	@DEBUG_VALUE: __uninit_default_n<float *, unsigned int>:__first <- %R7
	@DEBUG_VALUE: __uninitialized_default_n<float *, unsigned int>:__first <- %R7
	@DEBUG_VALUE: __uninitialized_default_n_a<float *, unsigned int, float>:__first <- %R7
	.loc	56 546 20               @ /usr/bin/../lib/gcc/arm-linux-gnueabihf/6.3.0/../../../../include/c++/6.3.0/bits/vector.tcc:546:20
	ldr	r7, [r4, #4]
.Ltmp325:
	.loc	56 545 32               @ /usr/bin/../lib/gcc/arm-linux-gnueabihf/6.3.0/../../../../include/c++/6.3.0/bits/vector.tcc:545:32
	ldr	r0, [r4, #8]
	.loc	56 546 4                @ /usr/bin/../lib/gcc/arm-linux-gnueabihf/6.3.0/../../../../include/c++/6.3.0/bits/vector.tcc:546:4
	sub	r0, r0, r7
	asr	r0, r0, #2
.Ltmp326:
	.loc	56 545 8                @ /usr/bin/../lib/gcc/arm-linux-gnueabihf/6.3.0/../../../../include/c++/6.3.0/bits/vector.tcc:545:8
	cmp	r0, r5
	bhs	.LBB8_12
.Ltmp327:
@ BB#2:
	@DEBUG_VALUE: _M_default_append:this <- %R4
	@DEBUG_VALUE: _M_default_append:__n <- %R5
	@DEBUG_VALUE: size:this <- %R4
	.loc	9 656 66                @ /usr/bin/../lib/gcc/arm-linux-gnueabihf/6.3.0/../../../../include/c++/6.3.0/bits/stl_vector.h:656:66
	ldr	r1, [r4]
.Ltmp328:
	.loc	9 1422 17               @ /usr/bin/../lib/gcc/arm-linux-gnueabihf/6.3.0/../../../../include/c++/6.3.0/bits/stl_vector.h:1422:17
	mvn	r8, #-1073741824
.Ltmp329:
	.loc	9 656 50                @ /usr/bin/../lib/gcc/arm-linux-gnueabihf/6.3.0/../../../../include/c++/6.3.0/bits/stl_vector.h:656:50
	sub	r0, r7, r1
.Ltmp330:
	.loc	9 1422 17               @ /usr/bin/../lib/gcc/arm-linux-gnueabihf/6.3.0/../../../../include/c++/6.3.0/bits/stl_vector.h:1422:17
	sub	r2, r8, r0, asr #2
.Ltmp331:
	@DEBUG_VALUE: _M_check_len:__n <- %R5
	.loc	9 1422 6 is_stmt 0      @ /usr/bin/../lib/gcc/arm-linux-gnueabihf/6.3.0/../../../../include/c++/6.3.0/bits/stl_vector.h:1422:6
	cmp	r2, r5
	blo	.LBB8_13
.Ltmp332:
@ BB#3:                                 @ %_ZNKSt6vectorIfSaIfEE12_M_check_lenEjPKc.exit
	@DEBUG_VALUE: _M_check_len:__n <- %R5
	@DEBUG_VALUE: size:this <- %R4
	@DEBUG_VALUE: _M_default_append:this <- %R4
	@DEBUG_VALUE: _M_default_append:__n <- %R5
	.loc	9 656 50 is_stmt 1      @ /usr/bin/../lib/gcc/arm-linux-gnueabihf/6.3.0/../../../../include/c++/6.3.0/bits/stl_vector.h:656:50
	asr	r0, r0, #2
.Ltmp333:
	.loc	9 1425 35               @ /usr/bin/../lib/gcc/arm-linux-gnueabihf/6.3.0/../../../../include/c++/6.3.0/bits/stl_vector.h:1425:35
	cmp	r0, r5
	mov	r2, r0
	mov	r6, #0
	movlo	r2, r5
	add	r0, r2, r0
	.loc	9 1426 25               @ /usr/bin/../lib/gcc/arm-linux-gnueabihf/6.3.0/../../../../include/c++/6.3.0/bits/stl_vector.h:1426:25
	cmp	r6, r0, lsr #30
	mov	r3, r0
	mvnne	r3, #-1073741824
	cmp	r0, r2
	movhs	r8, r3
.Ltmp334:
	@DEBUG_VALUE: _M_allocate:__n <- %R8
	@DEBUG_VALUE: __len <- %R8
	@DEBUG_VALUE: allocate:__n <- %R8
	@DEBUG_VALUE: allocate:__n <- %R8
	.loc	9 170 9                 @ /usr/bin/../lib/gcc/arm-linux-gnueabihf/6.3.0/../../../../include/c++/6.3.0/bits/stl_vector.h:170:9
	cmp	r8, #0
.Ltmp335:
	@DEBUG_VALUE: _M_check_len:__len <- %R0
	beq	.LBB8_6
.Ltmp336:
@ BB#4:
	@DEBUG_VALUE: _M_check_len:__len <- %R0
	@DEBUG_VALUE: allocate:__n <- %R8
	@DEBUG_VALUE: allocate:__n <- %R8
	@DEBUG_VALUE: __len <- %R8
	@DEBUG_VALUE: _M_allocate:__n <- %R8
	@DEBUG_VALUE: _M_check_len:__n <- %R5
	@DEBUG_VALUE: size:this <- %R4
	@DEBUG_VALUE: _M_default_append:this <- %R4
	@DEBUG_VALUE: _M_default_append:__n <- %R5
	.loc	5 101 6                 @ /usr/bin/../lib/gcc/arm-linux-gnueabihf/6.3.0/../../../../include/c++/6.3.0/ext/new_allocator.h:101:6
	cmp	r8, #1073741824
	bhs	.LBB8_14
.Ltmp337:
@ BB#5:                                 @ %_ZNSt16allocator_traitsISaIfEE8allocateERS0_j.exit.i
	@DEBUG_VALUE: _M_check_len:__len <- %R0
	@DEBUG_VALUE: allocate:__n <- %R8
	@DEBUG_VALUE: allocate:__n <- %R8
	@DEBUG_VALUE: __len <- %R8
	@DEBUG_VALUE: _M_allocate:__n <- %R8
	@DEBUG_VALUE: _M_check_len:__n <- %R5
	@DEBUG_VALUE: size:this <- %R4
	@DEBUG_VALUE: _M_default_append:this <- %R4
	@DEBUG_VALUE: _M_default_append:__n <- %R5
	.loc	5 104 46                @ /usr/bin/../lib/gcc/arm-linux-gnueabihf/6.3.0/../../../../include/c++/6.3.0/ext/new_allocator.h:104:46
	lsl	r0, r8, #2
.Ltmp338:
	.loc	5 104 27 is_stmt 0      @ /usr/bin/../lib/gcc/arm-linux-gnueabihf/6.3.0/../../../../include/c++/6.3.0/ext/new_allocator.h:104:27
	bl	_Znwj
.Ltmp339:
	.loc	56 563 22 is_stmt 1     @ /usr/bin/../lib/gcc/arm-linux-gnueabihf/6.3.0/../../../../include/c++/6.3.0/bits/vector.tcc:563:22
	ldm	r4, {r1, r7}
.Ltmp340:
	@DEBUG_VALUE: size:this <- %R4
	.loc	5 104 27                @ /usr/bin/../lib/gcc/arm-linux-gnueabihf/6.3.0/../../../../include/c++/6.3.0/ext/new_allocator.h:104:27
	mov	r6, r0
.Ltmp341:
.LBB8_6:                                @ %_ZNSt12_Vector_baseIfSaIfEE11_M_allocateEj.exit
	@DEBUG_VALUE: allocate:__n <- %R8
	@DEBUG_VALUE: allocate:__n <- %R8
	@DEBUG_VALUE: __len <- %R8
	@DEBUG_VALUE: _M_allocate:__n <- %R8
	@DEBUG_VALUE: _M_check_len:__n <- %R5
	@DEBUG_VALUE: size:this <- %R4
	@DEBUG_VALUE: _M_default_append:this <- %R4
	@DEBUG_VALUE: _M_default_append:__n <- %R5
	@DEBUG_VALUE: __uninitialized_move_if_noexcept_a<float *, float *, std::allocator<float> >:__first <- %R1
	@DEBUG_VALUE: uninitialized_copy<std::move_iterator<float *>, float *>:__assignable <- 1
	@DEBUG_VALUE: __copy_move_a<true, float *, float *>:__simple <- 1
	.loc	51 366 34               @ /usr/bin/../lib/gcc/arm-linux-gnueabihf/6.3.0/../../../../include/c++/6.3.0/bits/stl_algobase.h:366:34
	sub	r2, r7, r1
	mov	r0, #0
	asr	r7, r2, #2
.Ltmp342:
	@DEBUG_VALUE: __copy_m<float>:_Num <- %R7
	.loc	51 367 8                @ /usr/bin/../lib/gcc/arm-linux-gnueabihf/6.3.0/../../../../include/c++/6.3.0/bits/stl_algobase.h:367:8
	cmp	r0, r2, asr #2
	beq	.LBB8_8
.Ltmp343:
@ BB#7:
	@DEBUG_VALUE: __copy_m<float>:_Num <- %R7
	@DEBUG_VALUE: __uninitialized_move_if_noexcept_a<float *, float *, std::allocator<float> >:__first <- %R1
	@DEBUG_VALUE: allocate:__n <- %R8
	@DEBUG_VALUE: allocate:__n <- %R8
	@DEBUG_VALUE: __len <- %R8
	@DEBUG_VALUE: _M_allocate:__n <- %R8
	@DEBUG_VALUE: _M_check_len:__n <- %R5
	@DEBUG_VALUE: size:this <- %R4
	@DEBUG_VALUE: _M_default_append:this <- %R4
	@DEBUG_VALUE: _M_default_append:__n <- %R5
	.loc	51 368 6                @ /usr/bin/../lib/gcc/arm-linux-gnueabihf/6.3.0/../../../../include/c++/6.3.0/bits/stl_algobase.h:368:6
	mov	r0, r6
	bl	memmove
.Ltmp344:
	@DEBUG_VALUE: __uninitialized_move_if_noexcept_a<float *, float *, std::allocator<float> >:__result <- %R6
.LBB8_8:
	@DEBUG_VALUE: __copy_m<float>:_Num <- %R7
	@DEBUG_VALUE: allocate:__n <- %R8
	@DEBUG_VALUE: allocate:__n <- %R8
	@DEBUG_VALUE: __len <- %R8
	@DEBUG_VALUE: _M_allocate:__n <- %R8
	@DEBUG_VALUE: _M_check_len:__n <- %R5
	@DEBUG_VALUE: size:this <- %R4
	@DEBUG_VALUE: _M_default_append:this <- %R4
	@DEBUG_VALUE: _M_default_append:__n <- %R5
	.loc	51 369 20               @ /usr/bin/../lib/gcc/arm-linux-gnueabihf/6.3.0/../../../../include/c++/6.3.0/bits/stl_algobase.h:369:20
	add	r7, r6, r7, lsl #2
.Ltmp345:
	@DEBUG_VALUE: __niter <- %R5
	@DEBUG_VALUE: __fill_n_a<float *, unsigned int, float>:__first <- %R7
	@DEBUG_VALUE: fill_n<float *, unsigned int, float>:__first <- %R7
	@DEBUG_VALUE: __uninit_default_n<float *, unsigned int>:__first <- %R7
	@DEBUG_VALUE: __uninitialized_default_n<float *, unsigned int>:__assignable <- 1
	@DEBUG_VALUE: __uninitialized_default_n<float *, unsigned int>:__first <- %R7
	@DEBUG_VALUE: __uninitialized_default_n_a<float *, unsigned int, float>:__first <- %R7
	@DEBUG_VALUE: __new_finish <- %R7
	.loc	51 754 11               @ /usr/bin/../lib/gcc/arm-linux-gnueabihf/6.3.0/../../../../include/c++/6.3.0/bits/stl_algobase.h:754:11
	lsl	r2, r5, #2
	mov	r1, #0
	mov	r0, r7
	bl	memset
.Ltmp346:
	.loc	56 578 36               @ /usr/bin/../lib/gcc/arm-linux-gnueabihf/6.3.0/../../../../include/c++/6.3.0/bits/vector.tcc:578:36
	ldr	r0, [r4]
.Ltmp347:
	@DEBUG_VALUE: _M_deallocate:__p <- %R0
	@DEBUG_VALUE: deallocate:__p <- %R0
	@DEBUG_VALUE: deallocate:__p <- %R0
	.loc	51 754 11               @ /usr/bin/../lib/gcc/arm-linux-gnueabihf/6.3.0/../../../../include/c++/6.3.0/bits/stl_algobase.h:754:11
	add	r5, r7, r5, lsl #2
.Ltmp348:
	@DEBUG_VALUE: __new_finish <- %R5
	.loc	9 177 6                 @ /usr/bin/../lib/gcc/arm-linux-gnueabihf/6.3.0/../../../../include/c++/6.3.0/bits/stl_vector.h:177:6
	cmp	r0, #0
	beq	.LBB8_10
.Ltmp349:
@ BB#9:
	@DEBUG_VALUE: __new_finish <- %R5
	@DEBUG_VALUE: deallocate:__p <- %R0
	@DEBUG_VALUE: deallocate:__p <- %R0
	@DEBUG_VALUE: _M_deallocate:__p <- %R0
	@DEBUG_VALUE: __uninitialized_default_n_a<float *, unsigned int, float>:__first <- %R7
	@DEBUG_VALUE: __uninitialized_default_n<float *, unsigned int>:__first <- %R7
	@DEBUG_VALUE: __uninit_default_n<float *, unsigned int>:__first <- %R7
	@DEBUG_VALUE: fill_n<float *, unsigned int, float>:__first <- %R7
	@DEBUG_VALUE: __fill_n_a<float *, unsigned int, float>:__first <- %R7
	@DEBUG_VALUE: allocate:__n <- %R8
	@DEBUG_VALUE: allocate:__n <- %R8
	@DEBUG_VALUE: __len <- %R8
	@DEBUG_VALUE: _M_allocate:__n <- %R8
	@DEBUG_VALUE: size:this <- %R4
	@DEBUG_VALUE: _M_default_append:this <- %R4
	.loc	5 110 9                 @ /usr/bin/../lib/gcc/arm-linux-gnueabihf/6.3.0/../../../../include/c++/6.3.0/ext/new_allocator.h:110:9
	bl	_ZdlPv
.Ltmp350:
.LBB8_10:                               @ %_ZNSt12_Vector_baseIfSaIfEE13_M_deallocateEPfj.exit31
	@DEBUG_VALUE: __new_finish <- %R5
	@DEBUG_VALUE: __uninitialized_default_n_a<float *, unsigned int, float>:__first <- %R7
	@DEBUG_VALUE: __uninitialized_default_n<float *, unsigned int>:__first <- %R7
	@DEBUG_VALUE: __uninit_default_n<float *, unsigned int>:__first <- %R7
	@DEBUG_VALUE: fill_n<float *, unsigned int, float>:__first <- %R7
	@DEBUG_VALUE: __fill_n_a<float *, unsigned int, float>:__first <- %R7
	@DEBUG_VALUE: allocate:__n <- %R8
	@DEBUG_VALUE: allocate:__n <- %R8
	@DEBUG_VALUE: __len <- %R8
	@DEBUG_VALUE: _M_allocate:__n <- %R8
	@DEBUG_VALUE: size:this <- %R4
	@DEBUG_VALUE: _M_default_append:this <- %R4
	.loc	56 581 31               @ /usr/bin/../lib/gcc/arm-linux-gnueabihf/6.3.0/../../../../include/c++/6.3.0/bits/vector.tcc:581:31
	str	r6, [r4]
	.loc	56 583 54               @ /usr/bin/../lib/gcc/arm-linux-gnueabihf/6.3.0/../../../../include/c++/6.3.0/bits/vector.tcc:583:54
	add	r0, r6, r8, lsl #2
	.loc	56 582 32               @ /usr/bin/../lib/gcc/arm-linux-gnueabihf/6.3.0/../../../../include/c++/6.3.0/bits/vector.tcc:582:32
	str	r5, [r4, #4]
	.loc	56 583 40               @ /usr/bin/../lib/gcc/arm-linux-gnueabihf/6.3.0/../../../../include/c++/6.3.0/bits/vector.tcc:583:40
	str	r0, [r4, #8]
.Ltmp351:
.LBB8_11:
	@DEBUG_VALUE: _M_default_append:this <- %R4
	.loc	56 586 5 discriminator 2 @ /usr/bin/../lib/gcc/arm-linux-gnueabihf/6.3.0/../../../../include/c++/6.3.0/bits/vector.tcc:586:5
	pop	{r4, r5, r6, r7, r8, r10, r11, pc}
.Ltmp352:
.LBB8_12:                               @ %_ZSt27__uninitialized_default_n_aIPfjfET_S1_T0_RSaIT1_E.exit
	@DEBUG_VALUE: _M_default_append:this <- %R4
	@DEBUG_VALUE: _M_default_append:__n <- %R5
	@DEBUG_VALUE: __uninitialized_default_n<float *, unsigned int>:__assignable <- 1
	@DEBUG_VALUE: __niter <- %R5
	.loc	51 754 11               @ /usr/bin/../lib/gcc/arm-linux-gnueabihf/6.3.0/../../../../include/c++/6.3.0/bits/stl_algobase.h:754:11
	lsl	r2, r5, #2
	mov	r0, r7
	mov	r1, #0
	bl	memset
	add	r0, r7, r5, lsl #2
.Ltmp353:
	.loc	56 548 32               @ /usr/bin/../lib/gcc/arm-linux-gnueabihf/6.3.0/../../../../include/c++/6.3.0/bits/vector.tcc:548:32
	str	r0, [r4, #4]
.Ltmp354:
	.loc	56 586 5 discriminator 2 @ /usr/bin/../lib/gcc/arm-linux-gnueabihf/6.3.0/../../../../include/c++/6.3.0/bits/vector.tcc:586:5
	pop	{r4, r5, r6, r7, r8, r10, r11, pc}
.Ltmp355:
.LBB8_13:
	@DEBUG_VALUE: _M_check_len:__n <- %R5
	@DEBUG_VALUE: size:this <- %R4
	@DEBUG_VALUE: _M_default_append:this <- %R4
	@DEBUG_VALUE: _M_default_append:__n <- %R5
	.loc	9 1423 4                @ /usr/bin/../lib/gcc/arm-linux-gnueabihf/6.3.0/../../../../include/c++/6.3.0/bits/stl_vector.h:1423:4
	movw	r0, :lower16:.L.str.9
	movt	r0, :upper16:.L.str.9
.Ltmp356:
	@DEBUG_VALUE: _M_check_len:__s <- %R0
	mov	lr, pc
	b	_ZSt20__throw_length_errorPKc
.Ltmp357:
.LBB8_14:
	@DEBUG_VALUE: _M_check_len:__len <- %R0
	@DEBUG_VALUE: allocate:__n <- %R8
	@DEBUG_VALUE: allocate:__n <- %R8
	@DEBUG_VALUE: __len <- %R8
	@DEBUG_VALUE: _M_allocate:__n <- %R8
	@DEBUG_VALUE: _M_check_len:__n <- %R5
	@DEBUG_VALUE: size:this <- %R4
	@DEBUG_VALUE: _M_default_append:this <- %R4
	@DEBUG_VALUE: _M_default_append:__n <- %R5
	.loc	5 102 4                 @ /usr/bin/../lib/gcc/arm-linux-gnueabihf/6.3.0/../../../../include/c++/6.3.0/ext/new_allocator.h:102:4
	mov	lr, pc
	b	_ZSt17__throw_bad_allocv
.Ltmp358:
.Lfunc_end8:
	.size	_ZNSt6vectorIfSaIfEE17_M_default_appendEj, .Lfunc_end8-_ZNSt6vectorIfSaIfEE17_M_default_appendEj
	.cfi_endproc
	.fnend

	.section	.text.startup,"ax",%progbits
	.p2align	2
	.type	_GLOBAL__sub_I_render.ii,%function
_GLOBAL__sub_I_render.ii:               @ @_GLOBAL__sub_I_render.ii
.Lfunc_begin9:
	.loc	31 0 0                  @ /root/Bela/projects/fft-circular-buffer-peaks/build/render.cpp:0:0
	.fnstart
	.cfi_startproc
@ BB#0:
	.save	{r4, r5, r6, r10, r11, lr}
	push	{r4, r5, r6, r10, r11, lr}
.Ltmp359:
	.cfi_def_cfa_offset 24
.Ltmp360:
	.cfi_offset lr, -4
.Ltmp361:
	.cfi_offset r11, -8
.Ltmp362:
	.cfi_offset r10, -12
.Ltmp363:
	.cfi_offset r6, -16
.Ltmp364:
	.cfi_offset r5, -20
.Ltmp365:
	.cfi_offset r4, -24
	.setfp	r11, sp, #16
	add	r11, sp, #16
.Ltmp366:
	.cfi_def_cfa r11, 8
.Ltmp367:
	.loc	2 47 18 prologue_end    @ ./libraries/Fft/Fft.h:47:18
	movw	r5, :lower16:.L_MergedGlobals
.Ltmp368:
	.loc	11 24 5 discriminator 1 @ /root/Bela/projects/fft-circular-buffer-peaks/render.cpp:24:5
	movw	r4, :lower16:__dso_handle
.Ltmp369:
	.loc	2 47 18                 @ ./libraries/Fft/Fft.h:47:18
	movt	r5, :upper16:.L_MergedGlobals
	mov	r6, #0
	mov	r1, r5
.Ltmp370:
	.loc	11 24 5 discriminator 1 @ /root/Bela/projects/fft-circular-buffer-peaks/render.cpp:24:5
	movw	r0, :lower16:_ZN3FftD2Ev
.Ltmp371:
	.loc	2 47 18                 @ ./libraries/Fft/Fft.h:47:18
	str	r6, [r1, #20]!
.Ltmp372:
	@DEBUG_VALUE: Fft:this <- %R1
	.loc	11 24 5 discriminator 1 @ /root/Bela/projects/fft-circular-buffer-peaks/render.cpp:24:5
	movt	r4, :upper16:__dso_handle
	movt	r0, :upper16:_ZN3FftD2Ev
	mov	r2, r4
.Ltmp373:
	.loc	2 48 26                 @ ./libraries/Fft/Fft.h:48:26
	str	r6, [r5, #24]
	.loc	2 49 29                 @ ./libraries/Fft/Fft.h:49:29
	str	r6, [r5, #28]
.Ltmp374:
	.loc	11 24 5 discriminator 1 @ /root/Bela/projects/fft-circular-buffer-peaks/render.cpp:24:5
	bl	__cxa_atexit
.Ltmp375:
	.loc	9 87 22                 @ /usr/bin/../lib/gcc/arm-linux-gnueabihf/6.3.0/../../../../include/c++/6.3.0/bits/stl_vector.h:87:22
	str	r6, [r5, #8]!
.Ltmp376:
	.loc	11 30 20 discriminator 1 @ /root/Bela/projects/fft-circular-buffer-peaks/render.cpp:30:20
	movw	r0, :lower16:_ZNSt6vectorIfSaIfEED2Ev
	movt	r0, :upper16:_ZNSt6vectorIfSaIfEED2Ev
	mov	r2, r4
	mov	r1, r5
.Ltmp377:
	.loc	9 87 34                 @ /usr/bin/../lib/gcc/arm-linux-gnueabihf/6.3.0/../../../../include/c++/6.3.0/bits/stl_vector.h:87:34
	str	r6, [r5, #4]
	.loc	9 87 47 is_stmt 0       @ /usr/bin/../lib/gcc/arm-linux-gnueabihf/6.3.0/../../../../include/c++/6.3.0/bits/stl_vector.h:87:47
	str	r6, [r5, #8]
.Ltmp378:
	.loc	11 30 20 is_stmt 1 discriminator 1 @ /root/Bela/projects/fft-circular-buffer-peaks/render.cpp:30:20
	bl	__cxa_atexit
.Ltmp379:
	.loc	22 110 25               @ /usr/bin/../lib/gcc/arm-linux-gnueabihf/6.3.0/../../../../include/c++/6.3.0/bits/basic_string.h:110:25
	add	r0, r5, #36
	str	r0, [r5, #28]
.Ltmp380:
	@DEBUG_VALUE: _S_copy:__n <- 12
	@DEBUG_VALUE: _M_construct<const char *>:__dnew <- 12
	.loc	24 290 33               @ /usr/bin/../lib/gcc/arm-linux-gnueabihf/6.3.0/../../../../include/c++/6.3.0/bits/char_traits.h:290:33
	movw	r0, :lower16:.L.str
.Ltmp381:
	.loc	22 110 25               @ /usr/bin/../lib/gcc/arm-linux-gnueabihf/6.3.0/../../../../include/c++/6.3.0/bits/basic_string.h:110:25
	add	r1, r5, #28
.Ltmp382:
	@DEBUG_VALUE: _M_length:this <- %R1
	@DEBUG_VALUE: _M_set_length:__n <- 12
	@DEBUG_VALUE: _M_set_length:this <- %R1
	@DEBUG_VALUE: _M_construct<const char *>:this <- %R1
	@DEBUG_VALUE: _M_construct_aux<const char *>:this <- %R1
	@DEBUG_VALUE: _M_construct<const char *>:this <- %R1
	@DEBUG_VALUE: basic_string:this <- %R1
	.loc	24 290 33               @ /usr/bin/../lib/gcc/arm-linux-gnueabihf/6.3.0/../../../../include/c++/6.3.0/bits/char_traits.h:290:33
	movt	r0, :upper16:.L.str
.Ltmp383:
	.loc	11 35 13 discriminator 6 @ /root/Bela/projects/fft-circular-buffer-peaks/render.cpp:35:13
	mov	r2, r4
.Ltmp384:
	.loc	24 290 33               @ /usr/bin/../lib/gcc/arm-linux-gnueabihf/6.3.0/../../../../include/c++/6.3.0/bits/char_traits.h:290:33
	vldr	d16, [r0]
	movw	r0, #30510
	movt	r0, #30305
	str	r0, [r5, #44]
	mov	r0, #12
.Ltmp385:
	@DEBUG_VALUE: _M_length:__length <- 12
	vstr	d16, [r5, #36]
.Ltmp386:
	.loc	22 132 26               @ /usr/bin/../lib/gcc/arm-linux-gnueabihf/6.3.0/../../../../include/c++/6.3.0/bits/basic_string.h:132:26
	str	r0, [r5, #32]
.Ltmp387:
	.loc	11 35 13 discriminator 6 @ /root/Bela/projects/fft-circular-buffer-peaks/render.cpp:35:13
	movw	r0, :lower16:_ZNSt7__cxx1112basic_stringIcSt11char_traitsIcESaIcEED2Ev
	movt	r0, :upper16:_ZNSt7__cxx1112basic_stringIcSt11char_traitsIcESaIcEED2Ev
.Ltmp388:
	.loc	24 243 14               @ /usr/bin/../lib/gcc/arm-linux-gnueabihf/6.3.0/../../../../include/c++/6.3.0/bits/char_traits.h:243:14
	strb	r6, [r5, #48]
.Ltmp389:
	.loc	11 35 13 discriminator 6 @ /root/Bela/projects/fft-circular-buffer-peaks/render.cpp:35:13
	bl	__cxa_atexit
.Ltmp390:
	.loc	9 87 34                 @ /usr/bin/../lib/gcc/arm-linux-gnueabihf/6.3.0/../../../../include/c++/6.3.0/bits/stl_vector.h:87:34
	movw	r1, :lower16:gPlayer
	vmov.i32	q8, #0x0
	movt	r1, :upper16:gPlayer
.Ltmp391:
	@DEBUG_VALUE: MonoFilePlayer:this <- %R1
	.loc	11 38 16 discriminator 1 @ /root/Bela/projects/fft-circular-buffer-peaks/render.cpp:38:16
	mov	r2, r4
.Ltmp392:
	.loc	9 87 34                 @ /usr/bin/../lib/gcc/arm-linux-gnueabihf/6.3.0/../../../../include/c++/6.3.0/bits/stl_vector.h:87:34
	mov	r0, r1
	vst1.32	{d16, d17}, [r0]!
	strh	r6, [r0]
.Ltmp393:
	.loc	11 38 16 discriminator 1 @ /root/Bela/projects/fft-circular-buffer-peaks/render.cpp:38:16
	movw	r0, :lower16:_ZN14MonoFilePlayerD2Ev
	movt	r0, :upper16:_ZN14MonoFilePlayerD2Ev
	bl	__cxa_atexit
.Ltmp394:
	.loc	11 41 5                 @ /root/Bela/projects/fft-circular-buffer-peaks/render.cpp:41:5
	movw	r5, :lower16:gSpectrumGui
	movt	r5, :upper16:gSpectrumGui
	mov	r0, r5
	bl	_ZN3GuiC1Ev
	.loc	11 41 5 is_stmt 0 discriminator 1 @ /root/Bela/projects/fft-circular-buffer-peaks/render.cpp:41:5
	movw	r0, :lower16:_ZN3GuiD1Ev
	mov	r1, r5
	movt	r0, :upper16:_ZN3GuiD1Ev
	mov	r2, r4
.Ltmp395:
	@DEBUG_VALUE: vector:this <- %R5
	@DEBUG_VALUE: _S_copy:__d <- %R0
	@DEBUG_VALUE: _S_copy:__s <- %R0
	pop	{r4, r5, r6, r10, r11, lr}
.Ltmp396:
	b	__cxa_atexit
.Ltmp397:
.Lfunc_end9:
	.size	_GLOBAL__sub_I_render.ii, .Lfunc_end9-_GLOBAL__sub_I_render.ii
	.cfi_endproc
	.fnend

	.type	.L.str,%object          @ @.str
	.section	.rodata.str1.8,"aMS",%progbits,1
	.p2align	3
.L.str:
	.asciz	"drumloop.wav"
	.size	.L.str, 13

	.type	gPlayer,%object         @ @gPlayer
	.bss
	.globl	gPlayer
	.p2align	2
gPlayer:
	.zero	20
	.size	gPlayer, 20

	.type	gSpectrumGui,%object    @ @gSpectrumGui
	.globl	gSpectrumGui
	.p2align	2
gSpectrumGui:
	.zero	136
	.size	gSpectrumGui, 136

	.type	.L.str.5,%object        @ @.str.5
	.section	.rodata.str1.1,"aMS",%progbits,1
.L.str.5:
	.asciz	"Error loading audio file '%s'\n"
	.size	.L.str.5, 31

	.type	.L.str.6,%object        @ @.str.6
.L.str.6:
	.asciz	"Loaded the audio file '%s' with %d frames (%.1f seconds)\n"
	.size	.L.str.6, 58

	.type	.L.str.7,%object        @ @.str.7
.L.str.7:
	.asciz	"gui"
	.size	.L.str.7, 4

	.type	.L.str.9,%object        @ @.str.9
.L.str.9:
	.asciz	"vector::_M_default_append"
	.size	.L.str.9, 26

	.section	.init_array,"aw",%init_array
	.p2align	2
	.long	_GLOBAL__sub_I_render.ii(target1)
	.type	.L_MergedGlobals,%object @ @_MergedGlobals
	.local	.L_MergedGlobals
	.comm	.L_MergedGlobals,60,16
	.type	.L_MergedGlobals.2,%object @ @_MergedGlobals.2
	.local	.L_MergedGlobals.2
	.comm	.L_MergedGlobals.2,48,16